---
triple:          'x86_64-apple-darwin'
binary-path:     './build/ios-arm64_x86_64-simulator/powersync-sqlite-core.framework/powersync-sqlite-core'
relocations:
  - { offsetInCU: 0x1E, offset: 0x1E, size: 0x8, addend: 0x0, symName: _rust_eh_personality, symObjAddr: 0x0, symBinAddr: 0x988, symSize: 0x6 }
  - { offsetInCU: 0x30, offset: 0x30, size: 0x8, addend: 0x0, symName: _rust_eh_personality, symObjAddr: 0x0, symBinAddr: 0x988, symSize: 0x6 }
  - { offsetInCU: 0x4E, offset: 0x4E, size: 0x8, addend: 0x0, symName: __RNvCsk8UOdKf0bkt_7___rustc14___rust_realloc, symObjAddr: 0x6, symBinAddr: 0x98E, symSize: 0x4D }
  - { offsetInCU: 0x1E, offset: 0xB7E, size: 0x8, addend: 0x0, symName: __ZN4core3fmt5Write9write_fmt17h62920ea64fdf7181E, symObjAddr: 0x53, symBinAddr: 0x9DB, symSize: 0x19 }
  - { offsetInCU: 0xF1, offset: 0xC51, size: 0x8, addend: 0x0, symName: '__ZN58_$LT$alloc..string..String$u20$as$u20$core..fmt..Write$GT$9write_str17hf09b6b5b7796c0aaE', symObjAddr: 0x80, symBinAddr: 0xA08, symSize: 0x10 }
  - { offsetInCU: 0x207, offset: 0xD67, size: 0x8, addend: 0x0, symName: '__ZN58_$LT$alloc..string..String$u20$as$u20$core..fmt..Write$GT$10write_char17h99abeeb8cff35533E', symObjAddr: 0x90, symBinAddr: 0xA18, symSize: 0x101 }
  - { offsetInCU: 0x883, offset: 0x13E3, size: 0x8, addend: 0x0, symName: '__ZN4core3ptr42drop_in_place$LT$alloc..string..String$GT$17h0ca33b77fa392801E', symObjAddr: 0x6C, symBinAddr: 0x9F4, symSize: 0x14 }
  - { offsetInCU: 0xB70, offset: 0x16D0, size: 0x8, addend: 0x0, symName: __ZN4core3fmt5Write9write_fmt17h62920ea64fdf7181E, symObjAddr: 0x53, symBinAddr: 0x9DB, symSize: 0x19 }
  - { offsetInCU: 0x1E, offset: 0x1F33, size: 0x8, addend: 0x0, symName: '__ZN42_$LT$$RF$T$u20$as$u20$core..fmt..Debug$GT$3fmt17h088eb809d2958cb3E', symObjAddr: 0x191, symBinAddr: 0xB19, symSize: 0x1B6 }
  - { offsetInCU: 0x42, offset: 0x1F57, size: 0x8, addend: 0x0, symName: '__ZN42_$LT$$RF$T$u20$as$u20$core..fmt..Debug$GT$3fmt17h088eb809d2958cb3E', symObjAddr: 0x191, symBinAddr: 0xB19, symSize: 0x1B6 }
  - { offsetInCU: 0x1071, offset: 0x2F86, size: 0x8, addend: 0x0, symName: '__ZN132_$LT$alloc..vec..Vec$LT$T$C$A$GT$$u20$as$u20$alloc..vec..spec_extend..SpecExtend$LT$$RF$T$C$core..slice..iter..Iter$LT$T$GT$$GT$$GT$11spec_extend17h603b0263218721d6E', symObjAddr: 0x439, symBinAddr: 0xDC1, symSize: 0x45 }
  - { offsetInCU: 0x1610, offset: 0x3525, size: 0x8, addend: 0x0, symName: __ZN5alloc3fmt6format12format_inner17h8394067148ea51baE, symObjAddr: 0x347, symBinAddr: 0xCCF, symSize: 0xA6 }
  - { offsetInCU: 0x18C4, offset: 0x37D9, size: 0x8, addend: 0x0, symName: '__ZN5alloc5slice29_$LT$impl$u20$$u5b$T$u5d$$GT$9to_vec_in17h5e695f502620defbE', symObjAddr: 0x4A9, symBinAddr: 0xE31, symSize: 0x5D }
  - { offsetInCU: 0x1D3A, offset: 0x3C4F, size: 0x8, addend: 0x0, symName: '__ZN5alloc3vec16Vec$LT$T$C$A$GT$16with_capacity_in17hd311713b3a2e8057E', symObjAddr: 0x3ED, symBinAddr: 0xD75, symSize: 0x4C }
  - { offsetInCU: 0x1FE2, offset: 0x3EF7, size: 0x8, addend: 0x0, symName: '__ZN5alloc3vec16Vec$LT$T$C$A$GT$7reserve17hc0fed1f52c64e981E', symObjAddr: 0x47E, symBinAddr: 0xE06, symSize: 0x2B }
  - { offsetInCU: 0x2296, offset: 0x41AB, size: 0x8, addend: 0x0, symName: '__ZN5alloc3vec16Vec$LT$T$C$A$GT$16into_boxed_slice17hc3f6d63923bfb311E', symObjAddr: 0x506, symBinAddr: 0xE8E, symSize: 0x5A }
  - { offsetInCU: 0x1E, offset: 0x44C3, size: 0x8, addend: 0x0, symName: '__ZN5alloc7raw_vec19RawVec$LT$T$C$A$GT$8grow_one17he858243846451dc3E', symObjAddr: 0x560, symBinAddr: 0xEE8, symSize: 0x31 }
  - { offsetInCU: 0xEB8, offset: 0x535D, size: 0x8, addend: 0x0, symName: '__ZN5alloc7raw_vec20RawVecInner$LT$A$GT$7reserve21do_reserve_and_handle17h3fd7aaca65d88d97E', symObjAddr: 0x7F0, symBinAddr: 0x423CC, symSize: 0x25 }
  - { offsetInCU: 0x1017, offset: 0x54BC, size: 0x8, addend: 0x0, symName: __ZN5alloc7raw_vec12handle_error17h4d0c81d53ee6be9aE, symObjAddr: 0x66C, symBinAddr: 0x42350, symSize: 0x13 }
  - { offsetInCU: 0x10E6, offset: 0x558B, size: 0x8, addend: 0x0, symName: __ZN5alloc7raw_vec11finish_grow17h9c4ad503ad7933b1E, symObjAddr: 0x67F, symBinAddr: 0x42363, symSize: 0x67 }
  - { offsetInCU: 0x1276, offset: 0x571B, size: 0x8, addend: 0x0, symName: '__ZN77_$LT$alloc..raw_vec..RawVec$LT$T$C$A$GT$$u20$as$u20$core..ops..drop..Drop$GT$4drop17h7552120c206a8234E', symObjAddr: 0x711, symBinAddr: 0x1021, symSize: 0x17 }
  - { offsetInCU: 0x1798, offset: 0x5C3D, size: 0x8, addend: 0x0, symName: '__ZN5alloc7raw_vec19RawVec$LT$T$C$A$GT$8grow_one17he858243846451dc3E', symObjAddr: 0x560, symBinAddr: 0xEE8, symSize: 0x31 }
  - { offsetInCU: 0x19D8, offset: 0x5E7D, size: 0x8, addend: 0x0, symName: '__ZN5alloc7raw_vec20RawVecInner$LT$A$GT$14grow_amortized17h838bdb7cf50395c9E', symObjAddr: 0x591, symBinAddr: 0xF19, symSize: 0xDB }
  - { offsetInCU: 0x1A2F, offset: 0x5ED4, size: 0x8, addend: 0x0, symName: '__ZN5alloc7raw_vec20RawVecInner$LT$A$GT$14grow_amortized17h838bdb7cf50395c9E', symObjAddr: 0x591, symBinAddr: 0xF19, symSize: 0xDB }
  - { offsetInCU: 0x1ECA, offset: 0x636F, size: 0x8, addend: 0x0, symName: __ZN5alloc5alloc6Global10alloc_impl17hcdf5b2bf95f59c54E, symObjAddr: 0x6E6, symBinAddr: 0xFF6, symSize: 0x2B }
  - { offsetInCU: 0x1F65, offset: 0x640A, size: 0x8, addend: 0x0, symName: '__ZN5alloc7raw_vec20RawVecInner$LT$A$GT$10deallocate17hfeddc769ab50fcccE', symObjAddr: 0x728, symBinAddr: 0x1038, symSize: 0x39 }
  - { offsetInCU: 0x2086, offset: 0x652B, size: 0x8, addend: 0x0, symName: '__ZN5alloc7raw_vec20RawVecInner$LT$A$GT$15try_allocate_in17hf61812710b50ddf9E', symObjAddr: 0x761, symBinAddr: 0x1071, symSize: 0x8F }
  - { offsetInCU: 0x1E, offset: 0x6916, size: 0x8, addend: 0x0, symName: __ZN5alloc3ffi5c_str7CString19_from_vec_unchecked17h4ff0b1b3be4bcd9cE, symObjAddr: 0x815, symBinAddr: 0x1101, symSize: 0xE8 }
  - { offsetInCU: 0x47C, offset: 0x6D74, size: 0x8, addend: 0x0, symName: '__ZN72_$LT$$RF$str$u20$as$u20$alloc..ffi..c_str..CString..new..SpecNewImpl$GT$13spec_new_impl17h8052faafffdb3f39E', symObjAddr: 0x8FD, symBinAddr: 0x11E9, symSize: 0x11B }
  - { offsetInCU: 0xE5C, offset: 0x7754, size: 0x8, addend: 0x0, symName: __ZN5alloc3ffi5c_str7CString19_from_vec_unchecked17h4ff0b1b3be4bcd9cE, symObjAddr: 0x815, symBinAddr: 0x1101, symSize: 0xE8 }
  - { offsetInCU: 0x1E, offset: 0x83D8, size: 0x8, addend: 0x0, symName: '__ZN4core3fmt3num53_$LT$impl$u20$core..fmt..LowerHex$u20$for$u20$u32$GT$3fmt17h172835f56c2af913E', symObjAddr: 0xA18, symBinAddr: 0x1304, symSize: 0x7E }
  - { offsetInCU: 0x17D, offset: 0x8537, size: 0x8, addend: 0x0, symName: '__ZN4core3fmt3num53_$LT$impl$u20$core..fmt..LowerHex$u20$for$u20$u32$GT$3fmt17h172835f56c2af913E', symObjAddr: 0xA18, symBinAddr: 0x1304, symSize: 0x7E }
  - { offsetInCU: 0x1E, offset: 0x8B3D, size: 0x8, addend: 0x0, symName: __ZN4core3fmt5write17he7e706214adda612E, symObjAddr: 0xA96, symBinAddr: 0x1382, symSize: 0x1B2 }
  - { offsetInCU: 0x577, offset: 0x9096, size: 0x8, addend: 0x0, symName: __ZN4core3fmt5write17he7e706214adda612E, symObjAddr: 0xA96, symBinAddr: 0x1382, symSize: 0x1B2 }
  - { offsetInCU: 0x9C6, offset: 0x94E5, size: 0x8, addend: 0x0, symName: __ZN4core3fmt8getcount17h1cce528c2a5d769eE, symObjAddr: 0xC48, symBinAddr: 0x1534, symSize: 0x29 }
  - { offsetInCU: 0xB0D, offset: 0x962C, size: 0x8, addend: 0x0, symName: __ZN4core3fmt9Formatter12pad_integral12write_prefix17h2eaa6ad3c05854a5E, symObjAddr: 0x104D, symBinAddr: 0x1939, symSize: 0x59 }
  - { offsetInCU: 0xBFD, offset: 0x971C, size: 0x8, addend: 0x0, symName: '__ZN43_$LT$bool$u20$as$u20$core..fmt..Display$GT$3fmt17hc2d70999c0839066E', symObjAddr: 0x15F3, symBinAddr: 0x1EDF, symSize: 0x2F }
  - { offsetInCU: 0xC6A, offset: 0x9789, size: 0x8, addend: 0x0, symName: '__ZN43_$LT$char$u20$as$u20$core..fmt..Display$GT$3fmt17h11fceb60af018977E', symObjAddr: 0x1864, symBinAddr: 0x2150, symSize: 0xBE }
  - { offsetInCU: 0xD78, offset: 0x9897, size: 0x8, addend: 0x0, symName: '__ZN44_$LT$$RF$T$u20$as$u20$core..fmt..Display$GT$3fmt17h33cc6d14a81f027cE', symObjAddr: 0x1922, symBinAddr: 0x220E, symSize: 0x17 }
  - { offsetInCU: 0x14E4, offset: 0xA003, size: 0x8, addend: 0x0, symName: '__ZN81_$LT$core..str..iter..Chars$u20$as$u20$core..iter..traits..iterator..Iterator$GT$5count17hbd280a54c251c6fcE', symObjAddr: 0xEC2, symBinAddr: 0x17AE, symSize: 0x18B }
  - { offsetInCU: 0x1E3F, offset: 0xA95E, size: 0x8, addend: 0x0, symName: '__ZN81_$LT$core..str..iter..Chars$u20$as$u20$core..iter..traits..iterator..Iterator$GT$4next17h8d687a391f65d83aE.151', symObjAddr: 0x12A2, symBinAddr: 0x1B8E, symSize: 0x83 }
  - { offsetInCU: 0x1E82, offset: 0xA9A1, size: 0x8, addend: 0x0, symName: '__ZN81_$LT$core..str..iter..Chars$u20$as$u20$core..iter..traits..iterator..Iterator$GT$4next17h8d687a391f65d83aE.151', symObjAddr: 0x12A2, symBinAddr: 0x1B8E, symSize: 0x83 }
  - { offsetInCU: 0x2237, offset: 0xAD56, size: 0x8, addend: 0x0, symName: '__ZN4core3str6traits66_$LT$impl$u20$core..ops..index..Index$LT$I$GT$$u20$for$u20$str$GT$5index17h2ca37b60694ebcd9E', symObjAddr: 0x1622, symBinAddr: 0x1F0E, symSize: 0x41 }
  - { offsetInCU: 0x2276, offset: 0xAD95, size: 0x8, addend: 0x0, symName: '__ZN4core3str6traits66_$LT$impl$u20$core..ops..index..Index$LT$I$GT$$u20$for$u20$str$GT$5index17h2ca37b60694ebcd9E', symObjAddr: 0x1622, symBinAddr: 0x1F0E, symSize: 0x41 }
  - { offsetInCU: 0x2298, offset: 0xADB7, size: 0x8, addend: 0x0, symName: '__ZN4core3str6traits66_$LT$impl$u20$core..ops..index..Index$LT$I$GT$$u20$for$u20$str$GT$5index17h2ca37b60694ebcd9E', symObjAddr: 0x1622, symBinAddr: 0x1F0E, symSize: 0x41 }
  - { offsetInCU: 0x2EE0, offset: 0xB9FF, size: 0x8, addend: 0x0, symName: '__ZN4core4char7methods22_$LT$impl$u20$char$GT$16escape_debug_ext17h5f45f64bcad48a96E', symObjAddr: 0x1663, symBinAddr: 0x1F4F, symSize: 0x201 }
  - { offsetInCU: 0x4325, offset: 0xCE44, size: 0x8, addend: 0x0, symName: __ZN4core3fmt11PostPadding5write17h0d5701d049d99bb0E, symObjAddr: 0xC71, symBinAddr: 0x155D, symSize: 0x5D }
  - { offsetInCU: 0x443D, offset: 0xCF5C, size: 0x8, addend: 0x0, symName: __ZN4core3fmt9Formatter12pad_integral17h833b0cd37f03c012E, symObjAddr: 0xCCE, symBinAddr: 0x15BA, symSize: 0x1F4 }
  - { offsetInCU: 0x4701, offset: 0xD220, size: 0x8, addend: 0x0, symName: __ZN4core3fmt9Formatter7padding17h5df809545f14b3b6E, symObjAddr: 0x10A6, symBinAddr: 0x1992, symSize: 0x9E }
  - { offsetInCU: 0x4876, offset: 0xD395, size: 0x8, addend: 0x0, symName: __ZN4core3fmt9Formatter3pad17h4f56ad71d47c6badE, symObjAddr: 0x1144, symBinAddr: 0x1A30, symSize: 0x15E }
  - { offsetInCU: 0x4CA8, offset: 0xD7C7, size: 0x8, addend: 0x0, symName: __ZN4core3fmt9Formatter19pad_formatted_parts17hb03d17f80f563685E, symObjAddr: 0x1325, symBinAddr: 0x1C11, symSize: 0x1A0 }
  - { offsetInCU: 0x5026, offset: 0xDB45, size: 0x8, addend: 0x0, symName: __ZN4core3fmt9Formatter21write_formatted_parts17h7e197d032f51a311E, symObjAddr: 0x14C5, symBinAddr: 0x1DB1, symSize: 0x12E }
  - { offsetInCU: 0x1E, offset: 0xDFBD, size: 0x8, addend: 0x0, symName: __ZN4core3num7flt2dec8round_up17h4f4bafef2e15cec4E, symObjAddr: 0x1939, symBinAddr: 0x2225, symSize: 0x6E }
  - { offsetInCU: 0x8D, offset: 0xE02C, size: 0x8, addend: 0x0, symName: __ZN4core3num7flt2dec8round_up17h4f4bafef2e15cec4E, symObjAddr: 0x1939, symBinAddr: 0x2225, symSize: 0x6E }
  - { offsetInCU: 0x314, offset: 0xE2B3, size: 0x8, addend: 0x0, symName: __ZN4core3num7flt2dec17digits_to_dec_str17h60206db04e69e7faE, symObjAddr: 0x19A7, symBinAddr: 0x2293, symSize: 0x114 }
  - { offsetInCU: 0x1E, offset: 0xF17F, size: 0x8, addend: 0x0, symName: __ZN4core3str8converts9from_utf817h149b209f85ff1546E, symObjAddr: 0x1ABB, symBinAddr: 0x23A7, symSize: 0x1E6 }
  - { offsetInCU: 0x269, offset: 0xF3CA, size: 0x8, addend: 0x0, symName: __ZN4core3str8converts9from_utf817h149b209f85ff1546E, symObjAddr: 0x1ABB, symBinAddr: 0x23A7, symSize: 0x1E6 }
  - { offsetInCU: 0x6BE, offset: 0xF81F, size: 0x8, addend: 0x0, symName: '__ZN4core3fmt3num3imp51_$LT$impl$u20$core..fmt..Display$u20$for$u20$u8$GT$3fmt17h0f4ab095e608bcfaE', symObjAddr: 0x1CA1, symBinAddr: 0x258D, symSize: 0x15 }
  - { offsetInCU: 0x700, offset: 0xF861, size: 0x8, addend: 0x0, symName: '__ZN4core3fmt3num3imp20_$LT$impl$u20$u8$GT$4_fmt17heacbc75ec2bae7f4E', symObjAddr: 0x1CB6, symBinAddr: 0x25A2, symSize: 0x80 }
  - { offsetInCU: 0x959, offset: 0xFABA, size: 0x8, addend: 0x0, symName: '__ZN4core3fmt3num3imp52_$LT$impl$u20$core..fmt..Display$u20$for$u20$u32$GT$3fmt17h8284adc56aa117e7E', symObjAddr: 0x1D36, symBinAddr: 0x2622, symSize: 0x14 }
  - { offsetInCU: 0x99B, offset: 0xFAFC, size: 0x8, addend: 0x0, symName: '__ZN4core3fmt3num3imp21_$LT$impl$u20$u32$GT$4_fmt17h6d788aa1db8ed4cbE', symObjAddr: 0x1D4A, symBinAddr: 0x2636, symSize: 0xDD }
  - { offsetInCU: 0xC9F, offset: 0xFE00, size: 0x8, addend: 0x0, symName: '__ZN4core3fmt3num3imp52_$LT$impl$u20$core..fmt..Display$u20$for$u20$i32$GT$3fmt17h9f71328146e169d5E', symObjAddr: 0x1E27, symBinAddr: 0x2713, symSize: 0x1B }
  - { offsetInCU: 0xD1A, offset: 0xFE7B, size: 0x8, addend: 0x0, symName: '__ZN4core3fmt3num3imp52_$LT$impl$u20$core..fmt..Display$u20$for$u20$u64$GT$3fmt17hb2382c0914b902f9E', symObjAddr: 0x1E42, symBinAddr: 0x272E, symSize: 0x15 }
  - { offsetInCU: 0xD5C, offset: 0xFEBD, size: 0x8, addend: 0x0, symName: '__ZN4core3fmt3num3imp21_$LT$impl$u20$u64$GT$4_fmt17h014cfd7552a0dd7bE', symObjAddr: 0x1E57, symBinAddr: 0x2743, symSize: 0xFA }
  - { offsetInCU: 0x102F, offset: 0x10190, size: 0x8, addend: 0x0, symName: '__ZN4core3fmt3num3imp52_$LT$impl$u20$core..fmt..Display$u20$for$u20$i64$GT$3fmt17hdd61f74a24905419E', symObjAddr: 0x1F51, symBinAddr: 0x283D, symSize: 0x23 }
  - { offsetInCU: 0x1185, offset: 0x102E6, size: 0x8, addend: 0x0, symName: '__ZN4core3fmt3num3imp54_$LT$impl$u20$core..fmt..Display$u20$for$u20$usize$GT$3fmt17hea9e630f68a4454fE', symObjAddr: 0x1F74, symBinAddr: 0x2860, symSize: 0xEB }
  - { offsetInCU: 0x1E, offset: 0x1094D, size: 0x8, addend: 0x0, symName: __ZN4core3str7pattern11StrSearcher3new17h742df5264ca0abb6E, symObjAddr: 0x205F, symBinAddr: 0x294B, symSize: 0x180 }
  - { offsetInCU: 0xBAB, offset: 0x114DA, size: 0x8, addend: 0x0, symName: __ZN4core3str7pattern11StrSearcher3new17h742df5264ca0abb6E, symObjAddr: 0x205F, symBinAddr: 0x294B, symSize: 0x180 }
  - { offsetInCU: 0xF0E, offset: 0x1183D, size: 0x8, addend: 0x0, symName: __ZN4core3str7pattern14TwoWaySearcher14maximal_suffix17h137049f123b9e4fbE, symObjAddr: 0x21DF, symBinAddr: 0x2ACB, symSize: 0x9D }
  - { offsetInCU: 0x1020, offset: 0x1194F, size: 0x8, addend: 0x0, symName: __ZN4core3str7pattern14TwoWaySearcher22reverse_maximal_suffix17h75e00dcc9e95c069E, symObjAddr: 0x227C, symBinAddr: 0x2B68, symSize: 0xE7 }
  - { offsetInCU: 0x1E, offset: 0x11B16, size: 0x8, addend: 0x0, symName: '__ZN4core6escape24EscapeIterInner$LT$_$GT$7unicode17h699408630a3b2a73E', symObjAddr: 0x2363, symBinAddr: 0x2C4F, symSize: 0xB2 }
  - { offsetInCU: 0x177, offset: 0x11C6F, size: 0x8, addend: 0x0, symName: '__ZN4core6escape24EscapeIterInner$LT$_$GT$7unicode17h699408630a3b2a73E', symObjAddr: 0x2363, symBinAddr: 0x2C4F, symSize: 0xB2 }
  - { offsetInCU: 0x1E, offset: 0x11D58, size: 0x8, addend: 0x0, symName: __ZN4core6result13unwrap_failed17h9fcf7242cff07c21E, symObjAddr: 0x2415, symBinAddr: 0x423F1, symSize: 0x9 }
  - { offsetInCU: 0x28E, offset: 0x11FC8, size: 0x8, addend: 0x0, symName: __ZN4core3fmt5float29float_to_decimal_common_exact17h2a8ef9e399390766E, symObjAddr: 0x2451, symBinAddr: 0x2D11, symSize: 0x99B }
  - { offsetInCU: 0xBE5, offset: 0x1291F, size: 0x8, addend: 0x0, symName: __ZN4core3fmt5float32float_to_decimal_common_shortest17h50e920bf76b372fcE, symObjAddr: 0x2DEC, symBinAddr: 0x36AC, symSize: 0x81C }
  - { offsetInCU: 0x1309, offset: 0x13043, size: 0x8, addend: 0x0, symName: '__ZN4core3fmt5float52_$LT$impl$u20$core..fmt..Display$u20$for$u20$f64$GT$3fmt17h9d6765dff4a241b4E', symObjAddr: 0x3608, symBinAddr: 0x3EC8, symSize: 0x3A }
  - { offsetInCU: 0x13DA, offset: 0x13114, size: 0x8, addend: 0x0, symName: __ZN4core9panicking18panic_nounwind_fmt17h54c2b9a31a57185cE, symObjAddr: 0x242D, symBinAddr: 0x423FD, symSize: 0x6 }
  - { offsetInCU: 0x1458, offset: 0x13192, size: 0x8, addend: 0x0, symName: __ZN4core9panicking5panic17h27f522b60fff1afaE, symObjAddr: 0x2433, symBinAddr: 0x42403, symSize: 0x9 }
  - { offsetInCU: 0x1483, offset: 0x131BD, size: 0x8, addend: 0x0, symName: __ZN4core9panicking13assert_failed17h4bd861730a94f4e5E, symObjAddr: 0x243C, symBinAddr: 0x4240C, symSize: 0xC }
  - { offsetInCU: 0x14EB, offset: 0x13225, size: 0x8, addend: 0x0, symName: __ZN4core9panicking19assert_failed_inner17h447249e2401212a8E, symObjAddr: 0x2448, symBinAddr: 0x42418, symSize: 0x9 }
  - { offsetInCU: 0x1606, offset: 0x13340, size: 0x8, addend: 0x0, symName: __ZN4core6result13unwrap_failed17h9fcf7242cff07c21E, symObjAddr: 0x2415, symBinAddr: 0x423F1, symSize: 0x9 }
  - { offsetInCU: 0x1B8B, offset: 0x138C5, size: 0x8, addend: 0x0, symName: __ZN4core3fmt9Formatter9write_fmt17h6547b3ea83dd1893E.217, symObjAddr: 0x241E, symBinAddr: 0x2D02, symSize: 0xF }
  - { offsetInCU: 0x1E, offset: 0x13AE7, size: 0x8, addend: 0x0, symName: '__ZN4core3f6421_$LT$impl$u20$f64$GT$8classify17hf9f97754a964aaa9E', symObjAddr: 0x3642, symBinAddr: 0x3F02, symSize: 0x40 }
  - { offsetInCU: 0x52, offset: 0x13B1B, size: 0x8, addend: 0x0, symName: __ZN4core3num7flt2dec8strategy5grisu12CACHED_POW1017h5dbef7caa9cd4d86E, symObjAddr: 0x45390, symBinAddr: 0x44278, symSize: 0x0 }
  - { offsetInCU: 0x525, offset: 0x13FEE, size: 0x8, addend: 0x0, symName: __ZN4core3num7flt2dec8strategy5grisu12cached_power17h004d90ce106cd15dE, symObjAddr: 0x3682, symBinAddr: 0x3F42, symSize: 0x4E }
  - { offsetInCU: 0x5EE, offset: 0x140B7, size: 0x8, addend: 0x0, symName: __ZN4core3num7flt2dec8strategy5grisu22max_pow10_no_more_than17hd89bc75b6b8f19d1E, symObjAddr: 0x37BF, symBinAddr: 0x407F, symSize: 0x87 }
  - { offsetInCU: 0x61E, offset: 0x140E7, size: 0x8, addend: 0x0, symName: __ZN4core3num7flt2dec8strategy5grisu19format_shortest_opt14round_and_weed17h8b71a182386d0ceaE, symObjAddr: 0x385E, symBinAddr: 0x411E, symSize: 0xE9 }
  - { offsetInCU: 0x760, offset: 0x14229, size: 0x8, addend: 0x0, symName: __ZN4core3num7flt2dec8strategy5grisu16format_exact_opt14possibly_round17h252cb90319a7358fE, symObjAddr: 0x3947, symBinAddr: 0x4207, symSize: 0xE8 }
  - { offsetInCU: 0xA3C, offset: 0x14505, size: 0x8, addend: 0x0, symName: '__ZN70_$LT$core..num..error..ParseIntError$u20$as$u20$core..fmt..Display$GT$3fmt17h9e10b053532ea9e5E', symObjAddr: 0x3A2F, symBinAddr: 0x42EF, symSize: 0x2D }
  - { offsetInCU: 0xE68, offset: 0x14931, size: 0x8, addend: 0x0, symName: '__ZN108_$LT$core..ops..range..RangeTo$LT$usize$GT$$u20$as$u20$core..slice..index..SliceIndex$LT$$u5b$T$u5d$$GT$$GT$9index_mut17hf9b6ff9ec3bad2bdE.237', symObjAddr: 0x3846, symBinAddr: 0x4106, symSize: 0x18 }
  - { offsetInCU: 0x1014, offset: 0x14ADD, size: 0x8, addend: 0x0, symName: '__ZN4core3f6421_$LT$impl$u20$f64$GT$8classify17hf9f97754a964aaa9E', symObjAddr: 0x3642, symBinAddr: 0x3F02, symSize: 0x40 }
  - { offsetInCU: 0x11F1, offset: 0x14CBA, size: 0x8, addend: 0x0, symName: __ZN4core3num9diy_float2Fp9normalize17ha98752829ce4b8a5E, symObjAddr: 0x36D0, symBinAddr: 0x3F90, symSize: 0x9B }
  - { offsetInCU: 0x124D, offset: 0x14D16, size: 0x8, addend: 0x0, symName: __ZN4core3num9diy_float2Fp3mul17h9793407fb0e8d57eE, symObjAddr: 0x376B, symBinAddr: 0x402B, symSize: 0x54 }
  - { offsetInCU: 0x1E, offset: 0x14F84, size: 0x8, addend: 0x0, symName: '__ZN62_$LT$core..char..EscapeDebug$u20$as$u20$core..fmt..Display$GT$3fmt17he38351b8bc8100feE', symObjAddr: 0x3A5C, symBinAddr: 0x431C, symSize: 0x3E }
  - { offsetInCU: 0xDE, offset: 0x15044, size: 0x8, addend: 0x0, symName: '__ZN62_$LT$core..char..EscapeDebug$u20$as$u20$core..fmt..Display$GT$3fmt17he38351b8bc8100feE', symObjAddr: 0x3A5C, symBinAddr: 0x431C, symSize: 0x3E }
  - { offsetInCU: 0x777, offset: 0x156DD, size: 0x8, addend: 0x0, symName: __ZN4core5slice4sort6stable5drift11sqrt_approx17h7526c7cec11aaf80E, symObjAddr: 0x3A9A, symBinAddr: 0x435A, symSize: 0x2B }
  - { offsetInCU: 0x1E, offset: 0x15D0C, size: 0x8, addend: 0x0, symName: __ZN4core3num7dec2flt5float8RawFloat14integer_decode17h65a985074d8094d6E, symObjAddr: 0x3AC5, symBinAddr: 0x4385, symSize: 0x5B }
  - { offsetInCU: 0x290, offset: 0x15F7E, size: 0x8, addend: 0x0, symName: __ZN4core3num6bignum8Big32x4010mul_digits9mul_inner17he3de7f3524639290E, symObjAddr: 0x3F50, symBinAddr: 0x4804, symSize: 0xD5 }
  - { offsetInCU: 0x618, offset: 0x16306, size: 0x8, addend: 0x0, symName: '__ZN62_$LT$core..num..bignum..Big32x40$u20$as$u20$core..cmp..Ord$GT$3cmp17h4fe2bb4abcae8a01E', symObjAddr: 0x407C, symBinAddr: 0x4930, symSize: 0xAB }
  - { offsetInCU: 0x9E5, offset: 0x166D3, size: 0x8, addend: 0x0, symName: __ZN4core3num7dec2flt5float8RawFloat14integer_decode17h65a985074d8094d6E, symObjAddr: 0x3AC5, symBinAddr: 0x4385, symSize: 0x5B }
  - { offsetInCU: 0x125B, offset: 0x16F49, size: 0x8, addend: 0x0, symName: __ZN4core6option13unwrap_failed17h3062a9d1ac9937a7E, symObjAddr: 0x3B20, symBinAddr: 0x42424, symSize: 0xC }
  - { offsetInCU: 0x18AC, offset: 0x1759A, size: 0x8, addend: 0x0, symName: '__ZN4core5array85_$LT$impl$u20$core..ops..index..Index$LT$I$GT$$u20$for$u20$$u5b$T$u3b$$u20$N$u5d$$GT$5index17hd5079e616e1e918dE', symObjAddr: 0x3BA4, symBinAddr: 0x4458, symSize: 0x1F }
  - { offsetInCU: 0x1973, offset: 0x17661, size: 0x8, addend: 0x0, symName: '__ZN4core5array88_$LT$impl$u20$core..ops..index..IndexMut$LT$I$GT$$u20$for$u20$$u5b$T$u3b$$u20$N$u5d$$GT$9index_mut17hdd47254c8f793ae2E', symObjAddr: 0x3C66, symBinAddr: 0x451A, symSize: 0x1F }
  - { offsetInCU: 0x23A7, offset: 0x18095, size: 0x8, addend: 0x0, symName: __ZN4core3num6bignum8Big32x408from_u6417h40b0baee7e39054dE, symObjAddr: 0x3B2C, symBinAddr: 0x43E0, symSize: 0x67 }
  - { offsetInCU: 0x241B, offset: 0x18109, size: 0x8, addend: 0x0, symName: __ZN4core3num6bignum8Big32x406digits17h2dffc96037c6d239E, symObjAddr: 0x3B93, symBinAddr: 0x4447, symSize: 0x11 }
  - { offsetInCU: 0x2492, offset: 0x18180, size: 0x8, addend: 0x0, symName: __ZN4core3num6bignum8Big32x403add17hed4eec735df758b1E, symObjAddr: 0x3BC3, symBinAddr: 0x4477, symSize: 0xA3 }
  - { offsetInCU: 0x26C5, offset: 0x183B3, size: 0x8, addend: 0x0, symName: __ZN4core3num6bignum8Big32x403sub17h0d5756ae082f3c27E, symObjAddr: 0x3C85, symBinAddr: 0x4539, symSize: 0x91 }
  - { offsetInCU: 0x2905, offset: 0x185F3, size: 0x8, addend: 0x0, symName: __ZN4core3num6bignum8Big32x409mul_small17hdda69eea8b1abd34E, symObjAddr: 0x3D16, symBinAddr: 0x45CA, symSize: 0x7A }
  - { offsetInCU: 0x2A7A, offset: 0x18768, size: 0x8, addend: 0x0, symName: __ZN4core3num6bignum8Big32x408mul_pow217h858008413becd3f1E, symObjAddr: 0x3D90, symBinAddr: 0x4644, symSize: 0x132 }
  - { offsetInCU: 0x2D00, offset: 0x189EE, size: 0x8, addend: 0x0, symName: __ZN4core3num6bignum8Big32x4010mul_digits17hd57389a9f70747a9E, symObjAddr: 0x3EC2, symBinAddr: 0x4776, symSize: 0x8E }
  - { offsetInCU: 0x2E35, offset: 0x18B23, size: 0x8, addend: 0x0, symName: __ZN4core3num6bignum8Big32x4013div_rem_small17hadce4eb29a7e3e60E, symObjAddr: 0x4025, symBinAddr: 0x48D9, symSize: 0x57 }
  - { offsetInCU: 0x1E, offset: 0x18D85, size: 0x8, addend: 0x0, symName: __ZN4core3num7flt2dec8strategy6dragon9mul_pow1017h10f4324d3ad2a731E, symObjAddr: 0x4127, symBinAddr: 0x49DB, symSize: 0xDA }
  - { offsetInCU: 0x52, offset: 0x18DB9, size: 0x8, addend: 0x0, symName: __ZN4core3num7flt2dec8strategy6dragon5POW1017h2bae104d34563316E, symObjAddr: 0x45C44, symBinAddr: 0x44B2C, symSize: 0x0 }
  - { offsetInCU: 0x6D, offset: 0x18DD4, size: 0x8, addend: 0x0, symName: __ZN4core3num7flt2dec8strategy6dragon8POW5TO1617h1c30e841759d1ad1E, symObjAddr: 0x45C6C, symBinAddr: 0x44B54, symSize: 0x0 }
  - { offsetInCU: 0x88, offset: 0x18DEF, size: 0x8, addend: 0x0, symName: __ZN4core3num7flt2dec8strategy6dragon8POW5TO3217h9df591bf6d2633ddE, symObjAddr: 0x45C74, symBinAddr: 0x44B5C, symSize: 0x0 }
  - { offsetInCU: 0xA3, offset: 0x18E0A, size: 0x8, addend: 0x0, symName: __ZN4core3num7flt2dec8strategy6dragon8POW5TO6417h5972a6ae68382a4fE, symObjAddr: 0x45C80, symBinAddr: 0x44B68, symSize: 0x0 }
  - { offsetInCU: 0xBE, offset: 0x18E25, size: 0x8, addend: 0x0, symName: __ZN4core3num7flt2dec8strategy6dragon9POW5TO12817hb28e4fb075710c59E, symObjAddr: 0x45C94, symBinAddr: 0x44B7C, symSize: 0x0 }
  - { offsetInCU: 0xD9, offset: 0x18E40, size: 0x8, addend: 0x0, symName: __ZN4core3num7flt2dec8strategy6dragon9POW5TO25617h07df8fe6d108dc67E, symObjAddr: 0x45CBC, symBinAddr: 0x44BA4, symSize: 0x0 }
  - { offsetInCU: 0x367, offset: 0x190CE, size: 0x8, addend: 0x0, symName: __ZN4core3num7flt2dec8strategy6dragon9mul_pow1017h10f4324d3ad2a731E, symObjAddr: 0x4127, symBinAddr: 0x49DB, symSize: 0xDA }
  - { offsetInCU: 0x564, offset: 0x192CB, size: 0x8, addend: 0x0, symName: __ZN4core7unicode12unicode_data15grapheme_extend17SHORT_OFFSET_RUNS17h64cde93460f21f26E, symObjAddr: 0x45D08, symBinAddr: 0x44BF0, symSize: 0x0 }
  - { offsetInCU: 0x580, offset: 0x192E7, size: 0x8, addend: 0x0, symName: __ZN4core7unicode12unicode_data15grapheme_extend7OFFSETS17h421dfd71195f110aE, symObjAddr: 0x45955, symBinAddr: 0x4483D, symSize: 0x0 }
  - { offsetInCU: 0x58E, offset: 0x192F5, size: 0x8, addend: 0x0, symName: __ZN4core7unicode12unicode_data15grapheme_extend11lookup_slow17h8dab476be3ea4117E, symObjAddr: 0x424D, symBinAddr: 0x4B01, symSize: 0xAA }
  - { offsetInCU: 0xAB4, offset: 0x1981B, size: 0x8, addend: 0x0, symName: __ZN4core3cmp10PartialOrd2ge17heb1f90c4265b5328E, symObjAddr: 0x4201, symBinAddr: 0x4AB5, symSize: 0x10 }
  - { offsetInCU: 0xD30, offset: 0x19A97, size: 0x8, addend: 0x0, symName: '__ZN106_$LT$core..ops..range..Range$LT$usize$GT$$u20$as$u20$core..slice..index..SliceIndex$LT$$u5b$T$u5d$$GT$$GT$9index_mut17h4170094737aa476cE', symObjAddr: 0x4226, symBinAddr: 0x4ADA, symSize: 0x27 }
  - { offsetInCU: 0xE4A, offset: 0x19BB1, size: 0x8, addend: 0x0, symName: '__ZN108_$LT$core..ops..range..RangeTo$LT$usize$GT$$u20$as$u20$core..slice..index..SliceIndex$LT$$u5b$T$u5d$$GT$$GT$9index_mut17hf9b6ff9ec3bad2bdE.284', symObjAddr: 0x4211, symBinAddr: 0x4AC5, symSize: 0x15 }
  - { offsetInCU: 0x1E, offset: 0x1A578, size: 0x8, addend: 0x0, symName: __ZN4core3num7flt2dec7decoder6decode17hcae8b52a6f6e25dcE, symObjAddr: 0x42F7, symBinAddr: 0x4BAB, symSize: 0xE5 }
  - { offsetInCU: 0x27C, offset: 0x1A7D6, size: 0x8, addend: 0x0, symName: '__ZN4core5slice29_$LT$impl$u20$$u5b$T$u5d$$GT$15copy_from_slice17len_mismatch_fail17hc2c4b4be8e265176E', symObjAddr: 0x4430, symBinAddr: 0x4243C, symSize: 0x9 }
  - { offsetInCU: 0x39C, offset: 0x1A8F6, size: 0x8, addend: 0x0, symName: '__ZN73_$LT$$u5b$A$u5d$$u20$as$u20$core..slice..cmp..SlicePartialEq$LT$B$GT$$GT$5equal17hfbebb21816485b70E', symObjAddr: 0x440F, symBinAddr: 0x4CBB, symSize: 0x21 }
  - { offsetInCU: 0x6D1, offset: 0x1AC2B, size: 0x8, addend: 0x0, symName: __ZN4core3num7flt2dec7decoder6decode17hcae8b52a6f6e25dcE, symObjAddr: 0x42F7, symBinAddr: 0x4BAB, symSize: 0xE5 }
  - { offsetInCU: 0x87E, offset: 0x1ADD8, size: 0x8, addend: 0x0, symName: __ZN4core3num14overflow_panic3add17hdc5c93878f8fd21fE, symObjAddr: 0x43DC, symBinAddr: 0x42430, symSize: 0x9 }
  - { offsetInCU: 0xAC9, offset: 0x1B023, size: 0x8, addend: 0x0, symName: __ZN4core4iter6traits8iterator8Iterator3sum17he72eac3bac0dc8cfE, symObjAddr: 0x43E5, symBinAddr: 0x4C91, symSize: 0x2A }
  - { offsetInCU: 0x1E, offset: 0x1B4B0, size: 0x8, addend: 0x0, symName: __ZN4core5slice6memchr14memchr_aligned17h749be353b574de0bE, symObjAddr: 0x4439, symBinAddr: 0x4CDD, symSize: 0xB9 }
  - { offsetInCU: 0x72, offset: 0x1B504, size: 0x8, addend: 0x0, symName: __ZN4core7unicode9printable5check17h38f5df7a50ca5046E, symObjAddr: 0x4682, symBinAddr: 0x4F1E, symSize: 0xCB }
  - { offsetInCU: 0xA9A, offset: 0x1BF2C, size: 0x8, addend: 0x0, symName: __ZN4core5slice6memchr14memchr_aligned17h749be353b574de0bE, symObjAddr: 0x4439, symBinAddr: 0x4CDD, symSize: 0xB9 }
  - { offsetInCU: 0xCE9, offset: 0x1C17B, size: 0x8, addend: 0x0, symName: __ZN4core5slice6memchr12memchr_naive17h4f83c335f5e01683E, symObjAddr: 0x44F2, symBinAddr: 0x4D96, symSize: 0x29 }
  - { offsetInCU: 0x10AA, offset: 0x1C53C, size: 0x8, addend: 0x0, symName: __ZN4core3str16slice_error_fail17h6e212a5126a18551E, symObjAddr: 0x451B, symBinAddr: 0x42447, symSize: 0x9 }
  - { offsetInCU: 0x1155, offset: 0x1C5E7, size: 0x8, addend: 0x0, symName: '__ZN4core3str21_$LT$impl$u20$str$GT$19floor_char_boundary17hba30474a66e8068cE', symObjAddr: 0x4623, symBinAddr: 0x4EBF, symSize: 0x49 }
  - { offsetInCU: 0x1346, offset: 0x1C7D8, size: 0x8, addend: 0x0, symName: '__ZN4core3str21_$LT$impl$u20$str$GT$9ends_with17h10f5c4da3406a0ddE', symObjAddr: 0x466C, symBinAddr: 0x4F08, symSize: 0x16 }
  - { offsetInCU: 0x172B, offset: 0x1CBBD, size: 0x8, addend: 0x0, symName: __ZN4core3str19slice_error_fail_rt17h40728903d9e9a861E, symObjAddr: 0x4524, symBinAddr: 0x4DC0, symSize: 0xFF }
  - { offsetInCU: 0x1E, offset: 0x1D712, size: 0x8, addend: 0x0, symName: __ZN4core3num9diy_float2Fp12normalize_to17hc449dbe2ce38b5d8E, symObjAddr: 0x474D, symBinAddr: 0x4FE9, symSize: 0x46 }
  - { offsetInCU: 0x6C, offset: 0x1D760, size: 0x8, addend: 0x0, symName: '__ZN87_$LT$core..str..lossy..Utf8Chunks$u20$as$u20$core..iter..traits..iterator..Iterator$GT$4next17h969d2f0a44801d57E', symObjAddr: 0x4793, symBinAddr: 0x502F, symSize: 0x19A }
  - { offsetInCU: 0x1501, offset: 0x1EBF5, size: 0x8, addend: 0x0, symName: __ZN4core4cell22panic_already_borrowed17hc0037bfea0bff746E, symObjAddr: 0x492D, symBinAddr: 0x42451, symSize: 0x9 }
  - { offsetInCU: 0x18C0, offset: 0x1EFB4, size: 0x8, addend: 0x0, symName: __ZN4core3num9diy_float2Fp12normalize_to17hc449dbe2ce38b5d8E, symObjAddr: 0x474D, symBinAddr: 0x4FE9, symSize: 0x46 }
  - { offsetInCU: 0x1A02, offset: 0x1F0F6, size: 0x8, addend: 0x0, symName: __ZN4core3ffi5c_str4CStr6to_str17hd31c0887b10dc31eE, symObjAddr: 0x4936, symBinAddr: 0x51CA, symSize: 0xD }
  - { offsetInCU: 0x1E, offset: 0x1F1E1, size: 0x8, addend: 0x0, symName: __ZN6memchr4arch6x86_646memchr11memrchr_raw6detect17h327a51f132c08941E, symObjAddr: 0x4943, symBinAddr: 0x51D7, symSize: 0x18 }
  - { offsetInCU: 0x52, offset: 0x1F215, size: 0x8, addend: 0x0, symName: __ZN6memchr4arch6x86_646memchr11memrchr_raw2FN17ha87efd4928a9ac6dE, symObjAddr: 0x510C0, symBinAddr: 0x51BD8, symSize: 0x0 }
  - { offsetInCU: 0x5F, offset: 0x1F222, size: 0x8, addend: 0x0, symName: __ZN6memchr4arch6x86_646memchr11memrchr_raw6detect17h327a51f132c08941E, symObjAddr: 0x4943, symBinAddr: 0x51D7, symSize: 0x18 }
  - { offsetInCU: 0x10B, offset: 0x1F2CE, size: 0x8, addend: 0x0, symName: __ZN6memchr4arch6x86_646memchr11memrchr_raw9find_sse217he2bbd6006c41890fE, symObjAddr: 0x495B, symBinAddr: 0x51EF, symSize: 0x174 }
  - { offsetInCU: 0x94A, offset: 0x1FB0D, size: 0x8, addend: 0x0, symName: __ZN6memchr4arch6x86_646memchr9count_raw2FN17h13961da963476f5eE, symObjAddr: 0x510C8, symBinAddr: 0x51BE0, symSize: 0x0 }
  - { offsetInCU: 0x958, offset: 0x1FB1B, size: 0x8, addend: 0x0, symName: __ZN6memchr4arch6x86_646memchr9count_raw6detect17hc5888124b4946abdE, symObjAddr: 0x4ACF, symBinAddr: 0x5363, symSize: 0x18 }
  - { offsetInCU: 0xA04, offset: 0x1FBC7, size: 0x8, addend: 0x0, symName: __ZN6memchr4arch6x86_646memchr9count_raw9find_sse217hc823fe3a9206e7cfE, symObjAddr: 0x4AE7, symBinAddr: 0x537B, symSize: 0x239 }
  - { offsetInCU: 0x1E, offset: 0x2100A, size: 0x8, addend: 0x0, symName: '__ZN5alloc11collections5btree4node125NodeRef$LT$alloc..collections..btree..node..marker..Mut$C$K$C$V$C$alloc..collections..btree..node..marker..LeafOrInternal$GT$16choose_parent_kv17heb3af661a9c6bcd4E', symObjAddr: 0x4D20, symBinAddr: 0x55B4, symSize: 0x9E }
  - { offsetInCU: 0x680F, offset: 0x277FB, size: 0x8, addend: 0x0, symName: '__ZN4core4iter5range110_$LT$impl$u20$core..iter..traits..iterator..Iterator$u20$for$u20$core..ops..range..RangeInclusive$LT$A$GT$$GT$4next17h2ecc4e07c10b03ceE', symObjAddr: 0x65B4, symBinAddr: 0x6E48, symSize: 0x32 }
  - { offsetInCU: 0x6A40, offset: 0x27A2C, size: 0x8, addend: 0x0, symName: '__ZN4core5array88_$LT$impl$u20$core..ops..index..IndexMut$LT$I$GT$$u20$for$u20$$u5b$T$u3b$$u20$N$u5d$$GT$9index_mut17h15c8355b09979312E', symObjAddr: 0x6AF7, symBinAddr: 0x738B, symSize: 0x1F }
  - { offsetInCU: 0x6B01, offset: 0x27AED, size: 0x8, addend: 0x0, symName: '__ZN4core5array88_$LT$impl$u20$core..ops..index..IndexMut$LT$I$GT$$u20$for$u20$$u5b$T$u3b$$u20$N$u5d$$GT$9index_mut17h8ba5df59de31b3e0E', symObjAddr: 0x6B16, symBinAddr: 0x73AA, symSize: 0x1F }
  - { offsetInCU: 0x6BC2, offset: 0x27BAE, size: 0x8, addend: 0x0, symName: '__ZN4core5array88_$LT$impl$u20$core..ops..index..IndexMut$LT$I$GT$$u20$for$u20$$u5b$T$u3b$$u20$N$u5d$$GT$9index_mut17h1522d0d3a759fae2E', symObjAddr: 0x6B35, symBinAddr: 0x73C9, symSize: 0x1F }
  - { offsetInCU: 0x9847, offset: 0x2A833, size: 0x8, addend: 0x0, symName: __ZN5alloc11collections5btree4node13move_to_slice17h7f022d531fd58299E, symObjAddr: 0x5D75, symBinAddr: 0x6609, symSize: 0x26 }
  - { offsetInCU: 0x98BC, offset: 0x2A8A8, size: 0x8, addend: 0x0, symName: __ZN5alloc11collections5btree4node13move_to_slice17h773e8bb0a9a1344bE, symObjAddr: 0x5D9B, symBinAddr: 0x662F, symSize: 0x26 }
  - { offsetInCU: 0xA9E3, offset: 0x2B9CF, size: 0x8, addend: 0x0, symName: __ZN5alloc11collections5btree4node13move_to_slice17h874a4da03d77e118E, symObjAddr: 0x63AB, symBinAddr: 0x6C3F, symSize: 0x12 }
  - { offsetInCU: 0xAA27, offset: 0x2BA13, size: 0x8, addend: 0x0, symName: __ZN5alloc11collections5btree4node13move_to_slice17hed7e854b3006a0b1E, symObjAddr: 0x63BD, symBinAddr: 0x6C51, symSize: 0x26 }
  - { offsetInCU: 0xCCAC, offset: 0x2DC98, size: 0x8, addend: 0x0, symName: __ZN5alloc11collections5btree4node12slice_insert17h69d865594a8ab629E, symObjAddr: 0x69F3, symBinAddr: 0x7287, symSize: 0x5C }
  - { offsetInCU: 0xCDFE, offset: 0x2DDEA, size: 0x8, addend: 0x0, symName: __ZN5alloc11collections5btree4node12slice_insert17hbf474789309dba35E, symObjAddr: 0x6A4F, symBinAddr: 0x72E3, symSize: 0x5C }
  - { offsetInCU: 0xCF50, offset: 0x2DF3C, size: 0x8, addend: 0x0, symName: __ZN5alloc11collections5btree4node13move_to_slice17h5379b088ef316d3eE, symObjAddr: 0x6AAB, symBinAddr: 0x733F, symSize: 0x26 }
  - { offsetInCU: 0xCFC5, offset: 0x2DFB1, size: 0x8, addend: 0x0, symName: __ZN5alloc11collections5btree4node13move_to_slice17h917f23284f19a755E, symObjAddr: 0x6AD1, symBinAddr: 0x7365, symSize: 0x26 }
  - { offsetInCU: 0x14223, offset: 0x3520F, size: 0x8, addend: 0x0, symName: '__ZN5alloc11collections5btree4node125NodeRef$LT$alloc..collections..btree..node..marker..Mut$C$K$C$V$C$alloc..collections..btree..node..marker..LeafOrInternal$GT$16choose_parent_kv17heb3af661a9c6bcd4E', symObjAddr: 0x4D20, symBinAddr: 0x55B4, symSize: 0x9E }
  - { offsetInCU: 0x1424A, offset: 0x35236, size: 0x8, addend: 0x0, symName: '__ZN5alloc11collections5btree4node125NodeRef$LT$alloc..collections..btree..node..marker..Mut$C$K$C$V$C$alloc..collections..btree..node..marker..LeafOrInternal$GT$16choose_parent_kv17heb3af661a9c6bcd4E', symObjAddr: 0x4D20, symBinAddr: 0x55B4, symSize: 0x9E }
  - { offsetInCU: 0x14264, offset: 0x35250, size: 0x8, addend: 0x0, symName: '__ZN5alloc11collections5btree4node125NodeRef$LT$alloc..collections..btree..node..marker..Mut$C$K$C$V$C$alloc..collections..btree..node..marker..LeafOrInternal$GT$16choose_parent_kv17heb3af661a9c6bcd4E', symObjAddr: 0x4D20, symBinAddr: 0x55B4, symSize: 0x9E }
  - { offsetInCU: 0x148BD, offset: 0x358A9, size: 0x8, addend: 0x0, symName: '__ZN5alloc11collections5btree4node29BalancingContext$LT$K$C$V$GT$15bulk_steal_left17h1d5d3019eddcbcd4E', symObjAddr: 0x4DBE, symBinAddr: 0x5652, symSize: 0x289 }
  - { offsetInCU: 0x1519A, offset: 0x36186, size: 0x8, addend: 0x0, symName: '__ZN5alloc11collections5btree4node29BalancingContext$LT$K$C$V$GT$8do_merge17h79e065870d0c9ee3E', symObjAddr: 0x5047, symBinAddr: 0x58DB, symSize: 0x24C }
  - { offsetInCU: 0x15B4F, offset: 0x36B3B, size: 0x8, addend: 0x0, symName: '__ZN5alloc11collections5btree4node29BalancingContext$LT$K$C$V$GT$16bulk_steal_right17h36eccc7d84163970E', symObjAddr: 0x5293, symBinAddr: 0x5B27, symSize: 0x272 }
  - { offsetInCU: 0x16488, offset: 0x37474, size: 0x8, addend: 0x0, symName: '__ZN5alloc11collections5btree4node171Handle$LT$alloc..collections..btree..node..NodeRef$LT$alloc..collections..btree..node..marker..Mut$C$K$C$V$C$NodeType$GT$$C$alloc..collections..btree..node..marker..KV$GT$10replace_kv17h24a94a6aa692d2e8E', symObjAddr: 0x5505, symBinAddr: 0x5D99, symSize: 0x99 }
  - { offsetInCU: 0x16AAB, offset: 0x37A97, size: 0x8, addend: 0x0, symName: '__ZN5alloc11collections5btree4node125NodeRef$LT$alloc..collections..btree..node..marker..Mut$C$K$C$V$C$alloc..collections..btree..node..marker..LeafOrInternal$GT$16choose_parent_kv17hd6e47196ebbbc9f4E', symObjAddr: 0x559E, symBinAddr: 0x5E32, symSize: 0x93 }
  - { offsetInCU: 0x16AD2, offset: 0x37ABE, size: 0x8, addend: 0x0, symName: '__ZN5alloc11collections5btree4node125NodeRef$LT$alloc..collections..btree..node..marker..Mut$C$K$C$V$C$alloc..collections..btree..node..marker..LeafOrInternal$GT$16choose_parent_kv17hd6e47196ebbbc9f4E', symObjAddr: 0x559E, symBinAddr: 0x5E32, symSize: 0x93 }
  - { offsetInCU: 0x16AEC, offset: 0x37AD8, size: 0x8, addend: 0x0, symName: '__ZN5alloc11collections5btree4node125NodeRef$LT$alloc..collections..btree..node..marker..Mut$C$K$C$V$C$alloc..collections..btree..node..marker..LeafOrInternal$GT$16choose_parent_kv17hd6e47196ebbbc9f4E', symObjAddr: 0x559E, symBinAddr: 0x5E32, symSize: 0x93 }
  - { offsetInCU: 0x17284, offset: 0x38270, size: 0x8, addend: 0x0, symName: '__ZN5alloc11collections5btree4node29BalancingContext$LT$K$C$V$GT$15bulk_steal_left17h4ffaa9ad29e3d4ecE', symObjAddr: 0x5631, symBinAddr: 0x5EC5, symSize: 0x2A3 }
  - { offsetInCU: 0x17DE3, offset: 0x38DCF, size: 0x8, addend: 0x0, symName: '__ZN5alloc11collections5btree4node29BalancingContext$LT$K$C$V$GT$8do_merge17h586c8ea26f9af7e6E', symObjAddr: 0x58D4, symBinAddr: 0x6168, symSize: 0x20C }
  - { offsetInCU: 0x1878D, offset: 0x39779, size: 0x8, addend: 0x0, symName: '__ZN5alloc11collections5btree4node29BalancingContext$LT$K$C$V$GT$16bulk_steal_right17h5c39293f820d8432E', symObjAddr: 0x5AE0, symBinAddr: 0x6374, symSize: 0x295 }
  - { offsetInCU: 0x19327, offset: 0x3A313, size: 0x8, addend: 0x0, symName: '__ZN5alloc11collections5btree4node119NodeRef$LT$alloc..collections..btree..node..marker..Mut$C$K$C$V$C$alloc..collections..btree..node..marker..Internal$GT$30correct_childrens_parent_links17h3a2dbe66b6aca762E', symObjAddr: 0x5DC1, symBinAddr: 0x6655, symSize: 0x26 }
  - { offsetInCU: 0x197B1, offset: 0x3A79D, size: 0x8, addend: 0x0, symName: '__ZN5alloc11collections5btree4node125NodeRef$LT$alloc..collections..btree..node..marker..Mut$C$K$C$V$C$alloc..collections..btree..node..marker..LeafOrInternal$GT$16choose_parent_kv17hf4bf1a1f841ee165E', symObjAddr: 0x5DE7, symBinAddr: 0x667B, symSize: 0x8F }
  - { offsetInCU: 0x197D8, offset: 0x3A7C4, size: 0x8, addend: 0x0, symName: '__ZN5alloc11collections5btree4node125NodeRef$LT$alloc..collections..btree..node..marker..Mut$C$K$C$V$C$alloc..collections..btree..node..marker..LeafOrInternal$GT$16choose_parent_kv17hf4bf1a1f841ee165E', symObjAddr: 0x5DE7, symBinAddr: 0x667B, symSize: 0x8F }
  - { offsetInCU: 0x197F2, offset: 0x3A7DE, size: 0x8, addend: 0x0, symName: '__ZN5alloc11collections5btree4node125NodeRef$LT$alloc..collections..btree..node..marker..Mut$C$K$C$V$C$alloc..collections..btree..node..marker..LeafOrInternal$GT$16choose_parent_kv17hf4bf1a1f841ee165E', symObjAddr: 0x5DE7, symBinAddr: 0x667B, symSize: 0x8F }
  - { offsetInCU: 0x19E28, offset: 0x3AE14, size: 0x8, addend: 0x0, symName: '__ZN5alloc11collections5btree4node29BalancingContext$LT$K$C$V$GT$15bulk_steal_left17h400502dcbf8a3aa1E', symObjAddr: 0x5E76, symBinAddr: 0x670A, symSize: 0x1C9 }
  - { offsetInCU: 0x1A50A, offset: 0x3B4F6, size: 0x8, addend: 0x0, symName: '__ZN5alloc11collections5btree4node29BalancingContext$LT$K$C$V$GT$8do_merge17hf2051b5401a940f4E', symObjAddr: 0x603F, symBinAddr: 0x68D3, symSize: 0x1A3 }
  - { offsetInCU: 0x1ABBF, offset: 0x3BBAB, size: 0x8, addend: 0x0, symName: '__ZN5alloc11collections5btree4node29BalancingContext$LT$K$C$V$GT$16bulk_steal_right17hfc6426649dce9493E', symObjAddr: 0x61E2, symBinAddr: 0x6A76, symSize: 0x1C9 }
  - { offsetInCU: 0x1B2AD, offset: 0x3C299, size: 0x8, addend: 0x0, symName: '__ZN5alloc11collections5btree4node119NodeRef$LT$alloc..collections..btree..node..marker..Mut$C$K$C$V$C$alloc..collections..btree..node..marker..Internal$GT$30correct_childrens_parent_links17h22f95b57e7a7d917E', symObjAddr: 0x63E3, symBinAddr: 0x6C77, symSize: 0x22 }
  - { offsetInCU: 0x1B61D, offset: 0x3C609, size: 0x8, addend: 0x0, symName: '__ZN5alloc11collections5btree3fix176_$LT$impl$u20$alloc..collections..btree..node..NodeRef$LT$alloc..collections..btree..node..marker..Mut$C$K$C$V$C$alloc..collections..btree..node..marker..LeafOrInternal$GT$$GT$31fix_node_and_affected_ancestors17hbaf6743e6772a2caE', symObjAddr: 0x6405, symBinAddr: 0x6C99, symSize: 0xB7 }
  - { offsetInCU: 0x1B7D1, offset: 0x3C7BD, size: 0x8, addend: 0x0, symName: '__ZN5alloc11collections5btree4node115NodeRef$LT$alloc..collections..btree..node..marker..Mut$C$K$C$V$C$alloc..collections..btree..node..marker..Leaf$GT$16push_with_handle17hdc7e6c526d32e5deE', symObjAddr: 0x64BC, symBinAddr: 0x6D50, symSize: 0x71 }
  - { offsetInCU: 0x1BA15, offset: 0x3CA01, size: 0x8, addend: 0x0, symName: '__ZN5alloc11collections5btree4node117NodeRef$LT$alloc..collections..btree..node..marker..Owned$C$K$C$V$C$alloc..collections..btree..node..marker..Leaf$GT$8new_leaf17h183e0c5134188996E', symObjAddr: 0x652D, symBinAddr: 0x6DC1, symSize: 0xD }
  - { offsetInCU: 0x1BA9A, offset: 0x3CA86, size: 0x8, addend: 0x0, symName: '__ZN5alloc11collections5btree4node21LeafNode$LT$K$C$V$GT$3new17h130c55cf0943bba8E', symObjAddr: 0x653A, symBinAddr: 0x6DCE, symSize: 0x2A }
  - { offsetInCU: 0x1BCC6, offset: 0x3CCB2, size: 0x8, addend: 0x0, symName: '__ZN5alloc11collections5btree4node21LeafNode$LT$K$C$V$GT$3new17h9d409262e74da2f9E', symObjAddr: 0x6564, symBinAddr: 0x6DF8, symSize: 0x2A }
  - { offsetInCU: 0x1BF75, offset: 0x3CF61, size: 0x8, addend: 0x0, symName: '__ZN5alloc11collections5btree4node21LeafNode$LT$K$C$V$GT$3new17h7e185bba52a0ca41E', symObjAddr: 0x658E, symBinAddr: 0x6E22, symSize: 0x26 }
  - { offsetInCU: 0x1C239, offset: 0x3D225, size: 0x8, addend: 0x0, symName: '__ZN5alloc11collections5btree4node119NodeRef$LT$alloc..collections..btree..node..marker..Mut$C$K$C$V$C$alloc..collections..btree..node..marker..Internal$GT$4push17h67c75898105a5cf9E', symObjAddr: 0x65E6, symBinAddr: 0x6E7A, symSize: 0x89 }
  - { offsetInCU: 0x1C543, offset: 0x3D52F, size: 0x8, addend: 0x0, symName: '__ZN5alloc11collections5btree4node25InternalNode$LT$K$C$V$GT$3new17ha37bc1be6e240422E', symObjAddr: 0x666F, symBinAddr: 0x6F03, symSize: 0x2A }
  - { offsetInCU: 0x1C925, offset: 0x3D911, size: 0x8, addend: 0x0, symName: '__ZN5alloc11collections5btree4node121NodeRef$LT$alloc..collections..btree..node..marker..Owned$C$K$C$V$C$alloc..collections..btree..node..marker..Internal$GT$17from_new_internal17hf177e2b3c54a01e4E', symObjAddr: 0x6699, symBinAddr: 0x6F2D, symSize: 0x60 }
  - { offsetInCU: 0x1CB99, offset: 0x3DB85, size: 0x8, addend: 0x0, symName: '__ZN5alloc11collections5btree4node25InternalNode$LT$K$C$V$GT$3new17hd4c2b7d0a2f91fe2E', symObjAddr: 0x66F9, symBinAddr: 0x6F8D, symSize: 0x2A }
  - { offsetInCU: 0x1CDD2, offset: 0x3DDBE, size: 0x8, addend: 0x0, symName: '__ZN5alloc11collections5btree4node121NodeRef$LT$alloc..collections..btree..node..marker..Owned$C$K$C$V$C$alloc..collections..btree..node..marker..Internal$GT$17from_new_internal17hfcee09e06691c5daE', symObjAddr: 0x6723, symBinAddr: 0x6FB7, symSize: 0x60 }
  - { offsetInCU: 0x1D046, offset: 0x3E032, size: 0x8, addend: 0x0, symName: '__ZN5alloc11collections5btree4node25InternalNode$LT$K$C$V$GT$3new17haa18c9ce7dc80736E', symObjAddr: 0x6783, symBinAddr: 0x7017, symSize: 0x26 }
  - { offsetInCU: 0x1D404, offset: 0x3E3F0, size: 0x8, addend: 0x0, symName: '__ZN5alloc11collections5btree4node121NodeRef$LT$alloc..collections..btree..node..marker..Owned$C$K$C$V$C$alloc..collections..btree..node..marker..Internal$GT$17from_new_internal17h791e39dfd2444298E', symObjAddr: 0x67A9, symBinAddr: 0x703D, symSize: 0x5C }
  - { offsetInCU: 0x1D7BC, offset: 0x3E7A8, size: 0x8, addend: 0x0, symName: '__ZN5alloc11collections5btree4node127NodeRef$LT$alloc..collections..btree..node..marker..Dying$C$K$C$V$C$alloc..collections..btree..node..marker..LeafOrInternal$GT$21deallocate_and_ascend17h2879b65c1745cfb0E', symObjAddr: 0x6805, symBinAddr: 0x7099, symSize: 0x2E }
  - { offsetInCU: 0x1DA3D, offset: 0x3EA29, size: 0x8, addend: 0x0, symName: '__ZN5alloc11collections5btree4node127NodeRef$LT$alloc..collections..btree..node..marker..Dying$C$K$C$V$C$alloc..collections..btree..node..marker..LeafOrInternal$GT$21deallocate_and_ascend17h8ee7ab07eb98c833E', symObjAddr: 0x6833, symBinAddr: 0x70C7, symSize: 0x2E }
  - { offsetInCU: 0x1DD10, offset: 0x3ECFC, size: 0x8, addend: 0x0, symName: '__ZN5alloc11collections5btree4node127NodeRef$LT$alloc..collections..btree..node..marker..Dying$C$K$C$V$C$alloc..collections..btree..node..marker..LeafOrInternal$GT$21deallocate_and_ascend17hb951a35f825a1b7dE', symObjAddr: 0x6861, symBinAddr: 0x70F5, symSize: 0x2A }
  - { offsetInCU: 0x1DF91, offset: 0x3EF7D, size: 0x8, addend: 0x0, symName: '__ZN5alloc11collections5btree4node127NodeRef$LT$alloc..collections..btree..node..marker..Dying$C$K$C$V$C$alloc..collections..btree..node..marker..LeafOrInternal$GT$21deallocate_and_ascend17hc915934bfa77a399E', symObjAddr: 0x688B, symBinAddr: 0x711F, symSize: 0x2A }
  - { offsetInCU: 0x1E1D5, offset: 0x3F1C1, size: 0x8, addend: 0x0, symName: '__ZN5alloc11collections5btree4node127NodeRef$LT$alloc..collections..btree..node..marker..Owned$C$K$C$V$C$alloc..collections..btree..node..marker..LeafOrInternal$GT$18pop_internal_level17h7b85d068bcdf4d79E', symObjAddr: 0x68B5, symBinAddr: 0x7149, symSize: 0x39 }
  - { offsetInCU: 0x1E414, offset: 0x3F400, size: 0x8, addend: 0x0, symName: '__ZN5alloc11collections5btree4node127NodeRef$LT$alloc..collections..btree..node..marker..Owned$C$K$C$V$C$alloc..collections..btree..node..marker..LeafOrInternal$GT$19push_internal_level17h87f2d72a36ff512aE', symObjAddr: 0x68EE, symBinAddr: 0x7182, symSize: 0x40 }
  - { offsetInCU: 0x1E7D0, offset: 0x3F7BC, size: 0x8, addend: 0x0, symName: '__ZN5alloc11collections5btree4node127NodeRef$LT$alloc..collections..btree..node..marker..Owned$C$K$C$V$C$alloc..collections..btree..node..marker..LeafOrInternal$GT$19push_internal_level17hf54e24557aae7392E', symObjAddr: 0x692E, symBinAddr: 0x71C2, symSize: 0x92 }
  - { offsetInCU: 0x1EC98, offset: 0x3FC84, size: 0x8, addend: 0x0, symName: '__ZN5alloc11collections5btree4node127NodeRef$LT$alloc..collections..btree..node..marker..Owned$C$K$C$V$C$alloc..collections..btree..node..marker..LeafOrInternal$GT$3new17h8dacc8c86c7c94fcE', symObjAddr: 0x69C0, symBinAddr: 0x7254, symSize: 0xD }
  - { offsetInCU: 0x1ED55, offset: 0x3FD41, size: 0x8, addend: 0x0, symName: '__ZN5alloc11collections5btree4node127NodeRef$LT$alloc..collections..btree..node..marker..Owned$C$K$C$V$C$alloc..collections..btree..node..marker..LeafOrInternal$GT$3new17hc880b54a55010323E', symObjAddr: 0x69CD, symBinAddr: 0x7261, symSize: 0x26 }
  - { offsetInCU: 0x1EFF2, offset: 0x3FFDE, size: 0x8, addend: 0x0, symName: '__ZN5alloc11collections5btree4node208Handle$LT$alloc..collections..btree..node..NodeRef$LT$alloc..collections..btree..node..marker..Mut$C$K$C$V$C$alloc..collections..btree..node..marker..Leaf$GT$$C$alloc..collections..btree..node..marker..KV$GT$6remove17h9e285f0370784732E', symObjAddr: 0x6B54, symBinAddr: 0x73E8, symSize: 0xE3 }
  - { offsetInCU: 0x1F410, offset: 0x403FC, size: 0x8, addend: 0x0, symName: '__ZN5alloc11collections5btree4node210Handle$LT$alloc..collections..btree..node..NodeRef$LT$alloc..collections..btree..node..marker..Mut$C$K$C$V$C$alloc..collections..btree..node..marker..Leaf$GT$$C$alloc..collections..btree..node..marker..Edge$GT$10insert_fit17h2961a027ab8908d5E', symObjAddr: 0x6C37, symBinAddr: 0x74CB, symSize: 0x78 }
  - { offsetInCU: 0x1F5E4, offset: 0x405D0, size: 0x8, addend: 0x0, symName: '__ZN5alloc11collections5btree4node210Handle$LT$alloc..collections..btree..node..NodeRef$LT$alloc..collections..btree..node..marker..Mut$C$K$C$V$C$alloc..collections..btree..node..marker..Leaf$GT$$C$alloc..collections..btree..node..marker..Edge$GT$10insert_fit17h7fdcd717d4e43cd5E', symObjAddr: 0x6CAF, symBinAddr: 0x7543, symSize: 0x7A }
  - { offsetInCU: 0x1F7E4, offset: 0x407D0, size: 0x8, addend: 0x0, symName: '__ZN5alloc11collections5btree4node210Handle$LT$alloc..collections..btree..node..NodeRef$LT$alloc..collections..btree..node..marker..Mut$C$K$C$V$C$alloc..collections..btree..node..marker..Leaf$GT$$C$alloc..collections..btree..node..marker..Edge$GT$10insert_fit17h87f5c58291000574E', symObjAddr: 0x6D29, symBinAddr: 0x75BD, symSize: 0x7A }
  - { offsetInCU: 0x1F8DA, offset: 0x408C6, size: 0x8, addend: 0x0, symName: '__ZN5alloc11collections5btree4node214Handle$LT$alloc..collections..btree..node..NodeRef$LT$alloc..collections..btree..node..marker..Mut$C$K$C$V$C$alloc..collections..btree..node..marker..Internal$GT$$C$alloc..collections..btree..node..marker..Edge$GT$10insert_fit17h8f25a40beba64474E', symObjAddr: 0x6DA3, symBinAddr: 0x7637, symSize: 0xB8 }
  - { offsetInCU: 0x1FB95, offset: 0x40B81, size: 0x8, addend: 0x0, symName: '__ZN5alloc11collections5btree4node214Handle$LT$alloc..collections..btree..node..NodeRef$LT$alloc..collections..btree..node..marker..Mut$C$K$C$V$C$alloc..collections..btree..node..marker..Internal$GT$$C$alloc..collections..btree..node..marker..Edge$GT$10insert_fit17h028af652b91290e7E', symObjAddr: 0x6E5B, symBinAddr: 0x76EF, symSize: 0xC6 }
  - { offsetInCU: 0x20059, offset: 0x41045, size: 0x8, addend: 0x0, symName: '__ZN5alloc11collections5btree4node214Handle$LT$alloc..collections..btree..node..NodeRef$LT$alloc..collections..btree..node..marker..Mut$C$K$C$V$C$alloc..collections..btree..node..marker..Internal$GT$$C$alloc..collections..btree..node..marker..Edge$GT$10insert_fit17hdde930657bd0d92eE', symObjAddr: 0x6F21, symBinAddr: 0x77B5, symSize: 0xC3 }
  - { offsetInCU: 0x203FD, offset: 0x413E9, size: 0x8, addend: 0x0, symName: '__ZN5alloc11collections5btree4node29BalancingContext$LT$K$C$V$GT$10steal_left17h7a0d1f738727044aE', symObjAddr: 0x6FE4, symBinAddr: 0x7878, symSize: 0x3F }
  - { offsetInCU: 0x20469, offset: 0x41455, size: 0x8, addend: 0x0, symName: '__ZN5alloc11collections5btree4node29BalancingContext$LT$K$C$V$GT$11steal_right17ha22b4f1f9cd837d8E', symObjAddr: 0x7023, symBinAddr: 0x78B7, symSize: 0x3C }
  - { offsetInCU: 0x204D5, offset: 0x414C1, size: 0x8, addend: 0x0, symName: '__ZN5alloc11collections5btree4node29BalancingContext$LT$K$C$V$GT$8do_merge17hc5a096d90e2aae5dE', symObjAddr: 0x705F, symBinAddr: 0x78F3, symSize: 0x1A9 }
  - { offsetInCU: 0x20B8B, offset: 0x41B77, size: 0x8, addend: 0x0, symName: '__ZN5alloc11collections5btree4node29BalancingContext$LT$K$C$V$GT$8do_merge17h917508a5da28c66fE', symObjAddr: 0x7208, symBinAddr: 0x7A9C, symSize: 0x24B }
  - { offsetInCU: 0x21541, offset: 0x4252D, size: 0x8, addend: 0x0, symName: '__ZN5alloc11collections5btree4node29BalancingContext$LT$K$C$V$GT$8do_merge17h8f466594ea0d5261E', symObjAddr: 0x7453, symBinAddr: 0x7CE7, symSize: 0x212 }
  - { offsetInCU: 0x21F25, offset: 0x42F11, size: 0x8, addend: 0x0, symName: '__ZN5alloc11collections5btree4node29BalancingContext$LT$K$C$V$GT$25merge_tracking_child_edge17h2dc99cf87e732bb8E', symObjAddr: 0x7665, symBinAddr: 0x7EF9, symSize: 0x6D }
  - { offsetInCU: 0x22146, offset: 0x43132, size: 0x8, addend: 0x0, symName: '__ZN5alloc11collections5btree4node29BalancingContext$LT$K$C$V$GT$25merge_tracking_child_edge17h4aa5f8474f2a5080E', symObjAddr: 0x76D2, symBinAddr: 0x7F66, symSize: 0x6D }
  - { offsetInCU: 0x223B9, offset: 0x433A5, size: 0x8, addend: 0x0, symName: '__ZN5alloc11collections5btree4node29BalancingContext$LT$K$C$V$GT$25merge_tracking_child_edge17hfbe4cd2d163037eeE', symObjAddr: 0x773F, symBinAddr: 0x7FD3, symSize: 0x6D }
  - { offsetInCU: 0x226C2, offset: 0x436AE, size: 0x8, addend: 0x0, symName: '__ZN5alloc11collections5btree8navigate142_$LT$impl$u20$alloc..collections..btree..node..NodeRef$LT$BorrowType$C$K$C$V$C$alloc..collections..btree..node..marker..LeafOrInternal$GT$$GT$14last_leaf_edge17hf34574a929e030e0E', symObjAddr: 0x77AC, symBinAddr: 0x8040, symSize: 0x30 }
  - { offsetInCU: 0x229E4, offset: 0x439D0, size: 0x8, addend: 0x0, symName: '__ZN5alloc11collections5btree6remove259_$LT$impl$u20$alloc..collections..btree..node..Handle$LT$alloc..collections..btree..node..NodeRef$LT$alloc..collections..btree..node..marker..Mut$C$K$C$V$C$alloc..collections..btree..node..marker..Leaf$GT$$C$alloc..collections..btree..node..marker..KV$GT$$GT$14remove_leaf_kv17h0498536ad14e44f3E', symObjAddr: 0x77DC, symBinAddr: 0x8070, symSize: 0x156 }
  - { offsetInCU: 0x22F03, offset: 0x43EEF, size: 0x8, addend: 0x0, symName: '__ZN5alloc11collections5btree6remove259_$LT$impl$u20$alloc..collections..btree..node..Handle$LT$alloc..collections..btree..node..NodeRef$LT$alloc..collections..btree..node..marker..Mut$C$K$C$V$C$alloc..collections..btree..node..marker..Leaf$GT$$C$alloc..collections..btree..node..marker..KV$GT$$GT$14remove_leaf_kv17h55bbed27affbf8ecE', symObjAddr: 0x7932, symBinAddr: 0x81C6, symSize: 0x32B }
  - { offsetInCU: 0x237B9, offset: 0x447A5, size: 0x8, addend: 0x0, symName: '__ZN5alloc11collections5btree6remove259_$LT$impl$u20$alloc..collections..btree..node..Handle$LT$alloc..collections..btree..node..NodeRef$LT$alloc..collections..btree..node..marker..Mut$C$K$C$V$C$alloc..collections..btree..node..marker..Leaf$GT$$C$alloc..collections..btree..node..marker..KV$GT$$GT$14remove_leaf_kv17hab79e4f37546efeaE', symObjAddr: 0x7C5D, symBinAddr: 0x84F1, symSize: 0x2FF }
  - { offsetInCU: 0x23D42, offset: 0x44D2E, size: 0x8, addend: 0x0, symName: '__ZN5alloc11collections5btree8navigate142_$LT$impl$u20$alloc..collections..btree..node..NodeRef$LT$BorrowType$C$K$C$V$C$alloc..collections..btree..node..marker..LeafOrInternal$GT$$GT$14last_leaf_edge17hc563ca048f2125e0E', symObjAddr: 0x7F5C, symBinAddr: 0x87F0, symSize: 0x30 }
  - { offsetInCU: 0x23F7A, offset: 0x44F66, size: 0x8, addend: 0x0, symName: '__ZN5alloc11collections5btree8navigate227_$LT$impl$u20$alloc..collections..btree..node..Handle$LT$alloc..collections..btree..node..NodeRef$LT$BorrowType$C$K$C$V$C$alloc..collections..btree..node..marker..Leaf$GT$$C$alloc..collections..btree..node..marker..Edge$GT$$GT$7next_kv17h500556882fba15b9E', symObjAddr: 0x7F8C, symBinAddr: 0x8820, symSize: 0x51 }
  - { offsetInCU: 0x241F2, offset: 0x451DE, size: 0x8, addend: 0x0, symName: '__ZN5alloc11collections5btree8navigate235_$LT$impl$u20$alloc..collections..btree..node..Handle$LT$alloc..collections..btree..node..NodeRef$LT$BorrowType$C$K$C$V$C$alloc..collections..btree..node..marker..LeafOrInternal$GT$$C$alloc..collections..btree..node..marker..KV$GT$$GT$14next_leaf_edge17h1ac0516e3e44a889E', symObjAddr: 0x7FDD, symBinAddr: 0x8871, symSize: 0x50 }
  - { offsetInCU: 0x1E, offset: 0x4B7F1, size: 0x8, addend: 0x0, symName: '__ZN4core3ptr51drop_in_place$LT$powersync_core..schema..Schema$GT$17hd96abbe84e5467b3E', symObjAddr: 0x802D, symBinAddr: 0x88C1, symSize: 0x20 }
  - { offsetInCU: 0x375B, offset: 0x4EF2E, size: 0x8, addend: 0x0, symName: __ZN5serde2de12Deserializer21__deserialize_content17hefe5181ff92cf641E, symObjAddr: 0x85B8, symBinAddr: 0x8E4C, symSize: 0x849 }
  - { offsetInCU: 0x41D1, offset: 0x4F9A4, size: 0x8, addend: 0x0, symName: '__ZN81_$LT$core..marker..PhantomData$LT$T$GT$$u20$as$u20$serde..de..DeserializeSeed$GT$11deserialize17h2e5ab96eb20953c4E', symObjAddr: 0x8FE5, symBinAddr: 0x9879, symSize: 0x58 }
  - { offsetInCU: 0x6F99, offset: 0x5276C, size: 0x8, addend: 0x0, symName: '__ZN4core3ptr51drop_in_place$LT$powersync_core..schema..Schema$GT$17hd96abbe84e5467b3E', symObjAddr: 0x802D, symBinAddr: 0x88C1, symSize: 0x20 }
  - { offsetInCU: 0x6FE8, offset: 0x527BB, size: 0x8, addend: 0x0, symName: '__ZN4core3ptr85drop_in_place$LT$alloc..vec..Vec$LT$powersync_core..schema..table_info..Table$GT$$GT$17h8ee02f91a6785081E', symObjAddr: 0x804D, symBinAddr: 0x88E1, symSize: 0x29 }
  - { offsetInCU: 0x7056, offset: 0x52829, size: 0x8, addend: 0x0, symName: '__ZN4core3ptr88drop_in_place$LT$alloc..vec..Vec$LT$powersync_core..schema..table_info..RawTable$GT$$GT$17h67ac86fc6949513dE', symObjAddr: 0x8076, symBinAddr: 0x890A, symSize: 0x29 }
  - { offsetInCU: 0x70C4, offset: 0x52897, size: 0x8, addend: 0x0, symName: '__ZN4core3ptr65drop_in_place$LT$alloc..vec..Vec$LT$alloc..string..String$GT$$GT$17h7b41caac5b565fe5E', symObjAddr: 0x809F, symBinAddr: 0x8933, symSize: 0x29 }
  - { offsetInCU: 0x7132, offset: 0x52905, size: 0x8, addend: 0x0, symName: '__ZN4core3ptr86drop_in_place$LT$alloc..vec..Vec$LT$powersync_core..sync..line..BucketChecksum$GT$$GT$17ha066499d2f49654eE', symObjAddr: 0x80C8, symBinAddr: 0x895C, symSize: 0x29 }
  - { offsetInCU: 0x71DE, offset: 0x529B1, size: 0x8, addend: 0x0, symName: '__ZN4core3ptr62drop_in_place$LT$powersync_core..schema..table_info..Table$GT$17hc84c52c7cf64da7cE', symObjAddr: 0x80F1, symBinAddr: 0x8985, symSize: 0x46 }
  - { offsetInCU: 0x7277, offset: 0x52A4A, size: 0x8, addend: 0x0, symName: '__ZN4core3ptr86drop_in_place$LT$alloc..vec..Vec$LT$powersync_core..schema..table_info..Column$GT$$GT$17habb2db66b3fbb5d4E', symObjAddr: 0x8137, symBinAddr: 0x89CB, symSize: 0x29 }
  - { offsetInCU: 0x72E5, offset: 0x52AB8, size: 0x8, addend: 0x0, symName: '__ZN4core3ptr85drop_in_place$LT$alloc..vec..Vec$LT$powersync_core..schema..table_info..Index$GT$$GT$17he0dbe1c78558394fE', symObjAddr: 0x8160, symBinAddr: 0x89F4, symSize: 0x29 }
  - { offsetInCU: 0x7353, offset: 0x52B26, size: 0x8, addend: 0x0, symName: '__ZN4core3ptr99drop_in_place$LT$core..option..Option$LT$powersync_core..schema..table_info..DiffIncludeOld$GT$$GT$17hcbb058fcc5a768edE', symObjAddr: 0x8189, symBinAddr: 0x8A1D, symSize: 0x1B }
  - { offsetInCU: 0x7397, offset: 0x52B6A, size: 0x8, addend: 0x0, symName: '__ZN4core3ptr63drop_in_place$LT$powersync_core..sync..line..CheckpointDiff$GT$17h1100cea40b9df968E', symObjAddr: 0x81A4, symBinAddr: 0x8A38, symSize: 0x24 }
  - { offsetInCU: 0x73C7, offset: 0x52B9A, size: 0x8, addend: 0x0, symName: '__ZN4core3ptr57drop_in_place$LT$powersync_core..sync..line..DataLine$GT$17h863147031a6b2bccE', symObjAddr: 0x81C8, symBinAddr: 0x8A5C, symSize: 0x24 }
  - { offsetInCU: 0x73F7, offset: 0x52BCA, size: 0x8, addend: 0x0, symName: '__ZN4core3ptr50drop_in_place$LT$alloc..borrow..Cow$LT$str$GT$$GT$17h20a0e2dae19c5320E', symObjAddr: 0x81EC, symBinAddr: 0x8A80, symSize: 0x14 }
  - { offsetInCU: 0x7483, offset: 0x52C56, size: 0x8, addend: 0x0, symName: '__ZN4core3ptr82drop_in_place$LT$alloc..vec..Vec$LT$powersync_core..sync..line..OplogEntry$GT$$GT$17h24189936afdea62cE', symObjAddr: 0x8200, symBinAddr: 0x8A94, symSize: 0x29 }
  - { offsetInCU: 0x74F1, offset: 0x52CC4, size: 0x8, addend: 0x0, symName: '__ZN4core3ptr73drop_in_place$LT$alloc..vec..Vec$LT$alloc..borrow..Cow$LT$str$GT$$GT$$GT$17h090043c28db395c6E', symObjAddr: 0x8229, symBinAddr: 0x8ABD, symSize: 0x29 }
  - { offsetInCU: 0x7540, offset: 0x52D13, size: 0x8, addend: 0x0, symName: '__ZN4core3ptr69drop_in_place$LT$powersync_core..sync..interface..StartSyncStream$GT$17h0e5771b77140bd55E', symObjAddr: 0x8252, symBinAddr: 0x8AE6, symSize: 0x20 }
  - { offsetInCU: 0x75AE, offset: 0x52D81, size: 0x8, addend: 0x0, symName: '__ZN4core3ptr125drop_in_place$LT$core..option..Option$LT$serde_json..map..Map$LT$alloc..string..String$C$serde_json..value..Value$GT$$GT$$GT$17hc0fc219bc169e90bE', symObjAddr: 0x8272, symBinAddr: 0x8B06, symSize: 0x15 }
  - { offsetInCU: 0x7694, offset: 0x52E67, size: 0x8, addend: 0x0, symName: '__ZN4core3ptr59drop_in_place$LT$serde..__private..de..content..Content$GT$17h7fc5c16f4199828dE', symObjAddr: 0x8E01, symBinAddr: 0x9695, symSize: 0xDB }
  - { offsetInCU: 0x77A8, offset: 0x52F7B, size: 0x8, addend: 0x0, symName: '__ZN4core3ptr45drop_in_place$LT$serde_json..error..Error$GT$17h7f8938d62d0bf083E', symObjAddr: 0x8EDC, symBinAddr: 0x9770, symSize: 0x2D }
  - { offsetInCU: 0x79AA, offset: 0x5317D, size: 0x8, addend: 0x0, symName: '__ZN4core3ptr84drop_in_place$LT$alloc..boxed..Box$LT$serde..__private..de..content..Content$GT$$GT$17h474858d645a065d5E', symObjAddr: 0x8F09, symBinAddr: 0x979D, symSize: 0x1F }
  - { offsetInCU: 0x7AB1, offset: 0x53284, size: 0x8, addend: 0x0, symName: '__ZN4core3ptr159drop_in_place$LT$alloc..vec..Vec$LT$core..option..Option$LT$$LP$serde..__private..de..content..Content$C$serde..__private..de..content..Content$RP$$GT$$GT$$GT$17hccd9fe222f3a2547E', symObjAddr: 0x97EF, symBinAddr: 0xA083, symSize: 0x4C }
  - { offsetInCU: 0x7B86, offset: 0x53359, size: 0x8, addend: 0x0, symName: '__ZN4core3ptr93drop_in_place$LT$alloc..vec..Vec$LT$powersync_core..schema..table_info..IndexedColumn$GT$$GT$17h275d7d5404478a9fE', symObjAddr: 0x983B, symBinAddr: 0xA0CF, symSize: 0x29 }
  - { offsetInCU: 0x7BF4, offset: 0x533C7, size: 0x8, addend: 0x0, symName: '__ZN4core3ptr101drop_in_place$LT$alloc..vec..Vec$LT$powersync_core..schema..table_info..PendingStatementValue$GT$$GT$17ha5aca82e97950c0fE', symObjAddr: 0x9864, symBinAddr: 0xA0F8, symSize: 0x29 }
  - { offsetInCU: 0x7C43, offset: 0x53416, size: 0x8, addend: 0x0, symName: '__ZN4core3ptr114drop_in_place$LT$core..option..Option$LT$alloc..vec..Vec$LT$powersync_core..sync..line..BucketChecksum$GT$$GT$$GT$17hb8005f3ce25fdb23E', symObjAddr: 0x99C2, symBinAddr: 0xA256, symSize: 0x13 }
  - { offsetInCU: 0x7C72, offset: 0x53445, size: 0x8, addend: 0x0, symName: '__ZN4core3ptr70drop_in_place$LT$powersync_core..schema..table_info..IndexedColumn$GT$17h4584352a66c3b360E', symObjAddr: 0x99D5, symBinAddr: 0xA269, symSize: 0x28 }
  - { offsetInCU: 0x7D36, offset: 0x53509, size: 0x8, addend: 0x0, symName: '__ZN4core3ptr73drop_in_place$LT$powersync_core..schema..table_info..PendingStatement$GT$17hc82f80d024dc7bdeE', symObjAddr: 0x99FD, symBinAddr: 0xA291, symSize: 0x27 }
  - { offsetInCU: 0x7DB0, offset: 0x53583, size: 0x8, addend: 0x0, symName: '__ZN4core3ptr62drop_in_place$LT$powersync_core..schema..table_info..Index$GT$17ha430e92110137819E', symObjAddr: 0x9A24, symBinAddr: 0xA2B8, symSize: 0x27 }
  - { offsetInCU: 0x7E2A, offset: 0x535FD, size: 0x8, addend: 0x0, symName: '__ZN4core3ptr78drop_in_place$LT$core..option..Option$LT$alloc..borrow..Cow$LT$str$GT$$GT$$GT$17h6e75cf7d6b397974E', symObjAddr: 0x9A4B, symBinAddr: 0xA2DF, symSize: 0x1B }
  - { offsetInCU: 0x7E56, offset: 0x53629, size: 0x8, addend: 0x0, symName: '__ZN4core3ptr116drop_in_place$LT$core..option..Option$LT$alloc..vec..Vec$LT$powersync_core..schema..table_info..RawTable$GT$$GT$$GT$17h3dabb4f9e3aa2e79E', symObjAddr: 0x9A66, symBinAddr: 0xA2FA, symSize: 0x13 }
  - { offsetInCU: 0x7E85, offset: 0x53658, size: 0x8, addend: 0x0, symName: '__ZN4core3ptr65drop_in_place$LT$powersync_core..schema..table_info..RawTable$GT$17h0312d6ef41e06efcE', symObjAddr: 0x9A79, symBinAddr: 0xA30D, symSize: 0x30 }
  - { offsetInCU: 0x7EFF, offset: 0x536D2, size: 0x8, addend: 0x0, symName: '__ZN4core3ptr101drop_in_place$LT$core..option..Option$LT$powersync_core..schema..table_info..PendingStatement$GT$$GT$17hc18b9b5860f3f020E', symObjAddr: 0x9AA9, symBinAddr: 0xA33D, symSize: 0x13 }
  - { offsetInCU: 0x7F2E, offset: 0x53701, size: 0x8, addend: 0x0, symName: '__ZN4core3ptr63drop_in_place$LT$powersync_core..schema..table_info..Column$GT$17hee7106b8bac5bd72E', symObjAddr: 0x9ABC, symBinAddr: 0xA350, symSize: 0x28 }
  - { offsetInCU: 0x7FF2, offset: 0x537C5, size: 0x8, addend: 0x0, symName: '__ZN4core3ptr59drop_in_place$LT$powersync_core..sync..line..OplogEntry$GT$17hf9c25bf07a6ed3afE', symObjAddr: 0x9AE4, symBinAddr: 0xA378, symSize: 0x42 }
  - { offsetInCU: 0x8022, offset: 0x537F5, size: 0x8, addend: 0x0, symName: '__ZN4core3ptr106drop_in_place$LT$core..option..Option$LT$core..option..Option$LT$alloc..borrow..Cow$LT$str$GT$$GT$$GT$$GT$17h3f68ff26512cbf55E', symObjAddr: 0x9B26, symBinAddr: 0xA3BA, symSize: 0x1B }
  - { offsetInCU: 0x804E, offset: 0x53821, size: 0x8, addend: 0x0, symName: '__ZN4core3ptr153drop_in_place$LT$core..option..Option$LT$core..option..Option$LT$serde_json..map..Map$LT$alloc..string..String$C$serde_json..value..Value$GT$$GT$$GT$$GT$17h37486c46b5a73feaE', symObjAddr: 0x9B41, symBinAddr: 0xA3D5, symSize: 0x11 }
  - { offsetInCU: 0x807D, offset: 0x53850, size: 0x8, addend: 0x0, symName: '__ZN4core3ptr79drop_in_place$LT$core..option..Option$LT$powersync_core..schema..Schema$GT$$GT$17h2166f531a58562deE', symObjAddr: 0x9B52, symBinAddr: 0xA3E6, symSize: 0x13 }
  - { offsetInCU: 0x11568, offset: 0x5CD3B, size: 0x8, addend: 0x0, symName: '__ZN93_$LT$$RF$mut$u20$serde_json..de..Deserializer$LT$R$GT$$u20$as$u20$serde..de..Deserializer$GT$15deserialize_str17hd16f4ac6b40d3cc0E', symObjAddr: 0x94EA, symBinAddr: 0x9D7E, symSize: 0x156 }
  - { offsetInCU: 0x11874, offset: 0x5D047, size: 0x8, addend: 0x0, symName: '__ZN93_$LT$$RF$mut$u20$serde_json..de..Deserializer$LT$R$GT$$u20$as$u20$serde..de..Deserializer$GT$15deserialize_str17h31266cdd8c67b55eE', symObjAddr: 0x9640, symBinAddr: 0x9ED4, symSize: 0x120 }
  - { offsetInCU: 0x11B7D, offset: 0x5D350, size: 0x8, addend: 0x0, symName: '__ZN93_$LT$$RF$mut$u20$serde_json..de..Deserializer$LT$R$GT$$u20$as$u20$serde..de..Deserializer$GT$15deserialize_str17h6fd2ebd01b99b3bfE', symObjAddr: 0x988D, symBinAddr: 0xA121, symSize: 0x135 }
  - { offsetInCU: 0x13F88, offset: 0x5F75B, size: 0x8, addend: 0x0, symName: '__ZN75_$LT$serde_json..de..MapAccess$LT$R$GT$$u20$as$u20$serde..de..MapAccess$GT$15next_value_seed17h157b980a1d099a64E', symObjAddr: 0x8F28, symBinAddr: 0x97BC, symSize: 0x3F }
  - { offsetInCU: 0x1400F, offset: 0x5F7E2, size: 0x8, addend: 0x0, symName: '__ZN75_$LT$serde_json..de..MapAccess$LT$R$GT$$u20$as$u20$serde..de..MapAccess$GT$15next_value_seed17h214d578d204b591bE', symObjAddr: 0x8F67, symBinAddr: 0x97FB, symSize: 0x3F }
  - { offsetInCU: 0x14096, offset: 0x5F869, size: 0x8, addend: 0x0, symName: '__ZN75_$LT$serde_json..de..MapAccess$LT$R$GT$$u20$as$u20$serde..de..MapAccess$GT$15next_value_seed17h24d09323f8aba298E', symObjAddr: 0x8FA6, symBinAddr: 0x983A, symSize: 0x3F }
  - { offsetInCU: 0x140FE, offset: 0x5F8D1, size: 0x8, addend: 0x0, symName: '__ZN75_$LT$serde_json..de..MapAccess$LT$R$GT$$u20$as$u20$serde..de..MapAccess$GT$15next_value_seed17h2eedef85adb41b04E', symObjAddr: 0x903D, symBinAddr: 0x98D1, symSize: 0x28 }
  - { offsetInCU: 0x141A3, offset: 0x5F976, size: 0x8, addend: 0x0, symName: '__ZN75_$LT$serde_json..de..MapAccess$LT$R$GT$$u20$as$u20$serde..de..MapAccess$GT$15next_value_seed17h5d1a691ec02ce7ecE', symObjAddr: 0x9065, symBinAddr: 0x98F9, symSize: 0x35 }
  - { offsetInCU: 0x1424B, offset: 0x5FA1E, size: 0x8, addend: 0x0, symName: '__ZN75_$LT$serde_json..de..MapAccess$LT$R$GT$$u20$as$u20$serde..de..MapAccess$GT$15next_value_seed17h9bfb26add5181a47E', symObjAddr: 0x909A, symBinAddr: 0x992E, symSize: 0x3F }
  - { offsetInCU: 0x142D2, offset: 0x5FAA5, size: 0x8, addend: 0x0, symName: '__ZN75_$LT$serde_json..de..MapAccess$LT$R$GT$$u20$as$u20$serde..de..MapAccess$GT$15next_value_seed17hbe3524d81820e99bE', symObjAddr: 0x90D9, symBinAddr: 0x996D, symSize: 0x38 }
  - { offsetInCU: 0x14357, offset: 0x5FB2A, size: 0x8, addend: 0x0, symName: '__ZN75_$LT$serde_json..de..MapAccess$LT$R$GT$$u20$as$u20$serde..de..MapAccess$GT$15next_value_seed17hc06d70a737d867c2E', symObjAddr: 0x9111, symBinAddr: 0x99A5, symSize: 0x3F }
  - { offsetInCU: 0x143DE, offset: 0x5FBB1, size: 0x8, addend: 0x0, symName: '__ZN75_$LT$serde_json..de..MapAccess$LT$R$GT$$u20$as$u20$serde..de..MapAccess$GT$15next_value_seed17hc1c484aa75a31b5bE', symObjAddr: 0x9150, symBinAddr: 0x99E4, symSize: 0x38 }
  - { offsetInCU: 0x161D0, offset: 0x619A3, size: 0x8, addend: 0x0, symName: '__ZN75_$LT$serde_json..de..SeqAccess$LT$R$GT$$u20$as$u20$serde..de..SeqAccess$GT$17next_element_seed17h0aed94ed98043909E', symObjAddr: 0x9188, symBinAddr: 0x9A1C, symSize: 0x74 }
  - { offsetInCU: 0x1623A, offset: 0x61A0D, size: 0x8, addend: 0x0, symName: '__ZN75_$LT$serde_json..de..SeqAccess$LT$R$GT$$u20$as$u20$serde..de..SeqAccess$GT$17next_element_seed17h21cfa0737104c56fE', symObjAddr: 0x91FC, symBinAddr: 0x9A90, symSize: 0x81 }
  - { offsetInCU: 0x16287, offset: 0x61A5A, size: 0x8, addend: 0x0, symName: '__ZN75_$LT$serde_json..de..SeqAccess$LT$R$GT$$u20$as$u20$serde..de..SeqAccess$GT$17next_element_seed17h3407a2abff0ce1f2E', symObjAddr: 0x927D, symBinAddr: 0x9B11, symSize: 0x81 }
  - { offsetInCU: 0x162F1, offset: 0x61AC4, size: 0x8, addend: 0x0, symName: '__ZN75_$LT$serde_json..de..SeqAccess$LT$R$GT$$u20$as$u20$serde..de..SeqAccess$GT$17next_element_seed17h597d02d5b400cf90E', symObjAddr: 0x92FE, symBinAddr: 0x9B92, symSize: 0x81 }
  - { offsetInCU: 0x1635B, offset: 0x61B2E, size: 0x8, addend: 0x0, symName: '__ZN75_$LT$serde_json..de..SeqAccess$LT$R$GT$$u20$as$u20$serde..de..SeqAccess$GT$17next_element_seed17h68338043b075cad7E', symObjAddr: 0x937F, symBinAddr: 0x9C13, symSize: 0x76 }
  - { offsetInCU: 0x163C5, offset: 0x61B98, size: 0x8, addend: 0x0, symName: '__ZN75_$LT$serde_json..de..SeqAccess$LT$R$GT$$u20$as$u20$serde..de..SeqAccess$GT$17next_element_seed17h89e140325eabc789E', symObjAddr: 0x93F5, symBinAddr: 0x9C89, symSize: 0x81 }
  - { offsetInCU: 0x1642F, offset: 0x61C02, size: 0x8, addend: 0x0, symName: '__ZN75_$LT$serde_json..de..SeqAccess$LT$R$GT$$u20$as$u20$serde..de..SeqAccess$GT$17next_element_seed17haa1ada613821ae99E', symObjAddr: 0x9476, symBinAddr: 0x9D0A, symSize: 0x74 }
  - { offsetInCU: 0x17261, offset: 0x62A34, size: 0x8, addend: 0x0, symName: '__ZN83_$LT$serde_json..de..VariantAccess$LT$R$GT$$u20$as$u20$serde..de..VariantAccess$GT$12unit_variant17hc947fe15d60df5d4E', symObjAddr: 0x9760, symBinAddr: 0x9FF4, symSize: 0x8F }
  - { offsetInCU: 0x18328, offset: 0x63AFB, size: 0x8, addend: 0x0, symName: __ZN10serde_json2de12ParserNumber5visit17h3556e5b46a9adf12E, symObjAddr: 0x8287, symBinAddr: 0x8B1B, symSize: 0x74 }
  - { offsetInCU: 0x18421, offset: 0x63BF4, size: 0x8, addend: 0x0, symName: __ZN10serde_json2de12ParserNumber5visit17h46cc546ac3b23958E, symObjAddr: 0x82FB, symBinAddr: 0x8B8F, symSize: 0x94 }
  - { offsetInCU: 0x1850F, offset: 0x63CE2, size: 0x8, addend: 0x0, symName: __ZN10serde_json2de12ParserNumber5visit17h75c0177214bd0f08E, symObjAddr: 0x838F, symBinAddr: 0x8C23, symSize: 0x84 }
  - { offsetInCU: 0x186C4, offset: 0x63E97, size: 0x8, addend: 0x0, symName: __ZN10serde_json2de12ParserNumber5visit17hbeb411d4d3d672faE, symObjAddr: 0x8413, symBinAddr: 0x8CA7, symSize: 0x132 }
  - { offsetInCU: 0x18874, offset: 0x64047, size: 0x8, addend: 0x0, symName: __ZN10serde_json2de12ParserNumber5visit17he875e4c36b767ddcE, symObjAddr: 0x8545, symBinAddr: 0x8DD9, symSize: 0x73 }
  - { offsetInCU: 0x1E, offset: 0x650B1, size: 0x8, addend: 0x0, symName: __ZN14powersync_core4bson2de12Deserializer15prepare_to_read17h492977b711446b69E, symObjAddr: 0x9B65, symBinAddr: 0xA3F9, symSize: 0x18F }
  - { offsetInCU: 0x197, offset: 0x6522A, size: 0x8, addend: 0x0, symName: '__ZN5serde2de5impls80_$LT$impl$u20$serde..de..Deserialize$u20$for$u20$alloc..borrow..Cow$LT$T$GT$$GT$11deserialize17hec89315a0ccedc2bE', symObjAddr: 0xABCE, symBinAddr: 0xB462, symSize: 0x58 }
  - { offsetInCU: 0x205C, offset: 0x670EF, size: 0x8, addend: 0x0, symName: __ZN5serde2de7Visitor20visit_borrowed_bytes17h6fd55b3e6f2dbad1E, symObjAddr: 0xA19D, symBinAddr: 0xAA31, symSize: 0x20D }
  - { offsetInCU: 0x20C8, offset: 0x6715B, size: 0x8, addend: 0x0, symName: __ZN5serde2de7Visitor20visit_borrowed_bytes17h0daba49f8fc8c839E, symObjAddr: 0xA3AA, symBinAddr: 0xAC3E, symSize: 0x128 }
  - { offsetInCU: 0x2134, offset: 0x671C7, size: 0x8, addend: 0x0, symName: __ZN5serde2de7Visitor20visit_borrowed_bytes17h0786c2c9b91902c7E, symObjAddr: 0xA64B, symBinAddr: 0xAEDF, symSize: 0x1E5 }
  - { offsetInCU: 0x21A0, offset: 0x67233, size: 0x8, addend: 0x0, symName: __ZN5serde2de7Visitor20visit_borrowed_bytes17h02dc05914f8c4415E, symObjAddr: 0xA830, symBinAddr: 0xB0C4, symSize: 0x5A }
  - { offsetInCU: 0x220C, offset: 0x6729F, size: 0x8, addend: 0x0, symName: __ZN5serde2de7Visitor20visit_borrowed_bytes17hac691bb13c7380a9E, symObjAddr: 0xA88A, symBinAddr: 0xB11E, symSize: 0x44 }
  - { offsetInCU: 0x22F0, offset: 0x67383, size: 0x8, addend: 0x0, symName: __ZN5serde2de7Visitor20visit_borrowed_bytes17h6ff9e9611775de87E, symObjAddr: 0xAADC, symBinAddr: 0xB370, symSize: 0xF2 }
  - { offsetInCU: 0x3693, offset: 0x68726, size: 0x8, addend: 0x0, symName: '__ZN94_$LT$$RF$mut$u20$powersync_core..bson..de..Deserializer$u20$as$u20$serde..de..Deserializer$GT$15deserialize_any17h57f1a318036e0222E', symObjAddr: 0x9E87, symBinAddr: 0xA71B, symSize: 0x281 }
  - { offsetInCU: 0x3AE0, offset: 0x68B73, size: 0x8, addend: 0x0, symName: '__ZN94_$LT$$RF$mut$u20$powersync_core..bson..de..Deserializer$u20$as$u20$serde..de..Deserializer$GT$15deserialize_any17hb62aaf93d5f0e617E', symObjAddr: 0xA8CE, symBinAddr: 0xB162, symSize: 0x20E }
  - { offsetInCU: 0x7102, offset: 0x6C195, size: 0x8, addend: 0x0, symName: '__ZN79_$LT$powersync_core..bson..de..Deserializer$u20$as$u20$serde..de..SeqAccess$GT$17next_element_seed17he7f655c336655a03E', symObjAddr: 0xA108, symBinAddr: 0xA99C, symSize: 0x95 }
  - { offsetInCU: 0x71E1, offset: 0x6C274, size: 0x8, addend: 0x0, symName: '__ZN79_$LT$powersync_core..bson..de..Deserializer$u20$as$u20$serde..de..SeqAccess$GT$17next_element_seed17h869b464c7fb634f4E', symObjAddr: 0xA4ED, symBinAddr: 0xAD81, symSize: 0x9A }
  - { offsetInCU: 0x72F0, offset: 0x6C383, size: 0x8, addend: 0x0, symName: '__ZN79_$LT$powersync_core..bson..de..Deserializer$u20$as$u20$serde..de..SeqAccess$GT$17next_element_seed17hbed0ded83b9276e7E', symObjAddr: 0xA587, symBinAddr: 0xAE1B, symSize: 0x95 }
  - { offsetInCU: 0x73CF, offset: 0x6C462, size: 0x8, addend: 0x0, symName: '__ZN79_$LT$powersync_core..bson..de..Deserializer$u20$as$u20$serde..de..SeqAccess$GT$17next_element_seed17h095bd4a6b8779e51E', symObjAddr: 0xAC26, symBinAddr: 0xB4BA, symSize: 0x95 }
  - { offsetInCU: 0x7CCC, offset: 0x6CD5F, size: 0x8, addend: 0x0, symName: '__ZN95_$LT$$RF$mut$u20$powersync_core..bson..de..Deserializer$u20$as$u20$serde..de..VariantAccess$GT$12unit_variant17hffa126a643d6c5f6E', symObjAddr: 0xACD6, symBinAddr: 0x4245A, symSize: 0x24 }
  - { offsetInCU: 0xE800, offset: 0x73893, size: 0x8, addend: 0x0, symName: '__ZN4core3ptr106drop_in_place$LT$core..option..Option$LT$core..option..Option$LT$alloc..borrow..Cow$LT$str$GT$$GT$$GT$$GT$17h3f68ff26512cbf55E.400', symObjAddr: 0xA4D2, symBinAddr: 0xAD66, symSize: 0x1B }
  - { offsetInCU: 0xE82C, offset: 0x738BF, size: 0x8, addend: 0x0, symName: '__ZN4core3ptr78drop_in_place$LT$core..option..Option$LT$alloc..borrow..Cow$LT$str$GT$$GT$$GT$17h6e75cf7d6b397974E.402', symObjAddr: 0xA61C, symBinAddr: 0xAEB0, symSize: 0x1B }
  - { offsetInCU: 0xE8B5, offset: 0x73948, size: 0x8, addend: 0x0, symName: '__ZN4core3ptr50drop_in_place$LT$alloc..borrow..Cow$LT$str$GT$$GT$17h20a0e2dae19c5320E.403', symObjAddr: 0xA637, symBinAddr: 0xAECB, symSize: 0x14 }
  - { offsetInCU: 0xFE26, offset: 0x74EB9, size: 0x8, addend: 0x0, symName: '__ZN4core3cmp5impls69_$LT$impl$u20$core..cmp..PartialEq$LT$$RF$B$GT$$u20$for$u20$$RF$A$GT$2eq17hca003bfbe47a309eE', symObjAddr: 0xACBB, symBinAddr: 0xB54F, symSize: 0x1B }
  - { offsetInCU: 0x10168, offset: 0x751FB, size: 0x8, addend: 0x0, symName: __ZN14powersync_core4bson2de12Deserializer15prepare_to_read17h492977b711446b69E, symObjAddr: 0x9B65, symBinAddr: 0xA3F9, symSize: 0x18F }
  - { offsetInCU: 0x1037F, offset: 0x75412, size: 0x8, addend: 0x0, symName: __ZN14powersync_core4bson2de12Deserializer21prepare_to_read_value17h277f46145f054f80E, symObjAddr: 0x9CF4, symBinAddr: 0xA588, symSize: 0x4E }
  - { offsetInCU: 0x10440, offset: 0x754D3, size: 0x8, addend: 0x0, symName: __ZN14powersync_core4bson2de12Deserializer13object_reader17he29fcd7a7eb46ae3E, symObjAddr: 0x9D42, symBinAddr: 0xA5D6, symSize: 0x87 }
  - { offsetInCU: 0x104F7, offset: 0x7558A, size: 0x8, addend: 0x0, symName: __ZN14powersync_core4bson2de12Deserializer20advance_to_next_name17hada1af1c83ebc000E, symObjAddr: 0x9DC9, symBinAddr: 0xA65D, symSize: 0xBE }
  - { offsetInCU: 0x1E, offset: 0x75C93, size: 0x8, addend: 0x0, symName: '__ZN5alloc11collections5btree8navigate142_$LT$impl$u20$alloc..collections..btree..node..NodeRef$LT$BorrowType$C$K$C$V$C$alloc..collections..btree..node..marker..LeafOrInternal$GT$$GT$15first_leaf_edge17h0040ae2fd27b14d7E', symObjAddr: 0xACFA, symBinAddr: 0xB56A, symSize: 0x22 }
  - { offsetInCU: 0x15F, offset: 0x75DD4, size: 0x8, addend: 0x0, symName: '__ZN45_$LT$T$u20$as$u20$alloc..string..ToString$GT$9to_string17hd651358b1e1e3fa3E', symObjAddr: 0xC3C1, symBinAddr: 0xC9DD, symSize: 0x1FB }
  - { offsetInCU: 0x8EF, offset: 0x76564, size: 0x8, addend: 0x0, symName: '__ZN58_$LT$alloc..string..String$u20$as$u20$core..fmt..Write$GT$10write_char17h99abeeb8cff35533E.434', symObjAddr: 0xB5A1, symBinAddr: 0xBBBD, symSize: 0xD }
  - { offsetInCU: 0xAC0, offset: 0x76735, size: 0x8, addend: 0x0, symName: '__ZN60_$LT$alloc..string..String$u20$as$u20$core..fmt..Display$GT$3fmt17hfc8eb37dd7929bf4E', symObjAddr: 0xE685, symBinAddr: 0xECA1, symSize: 0x18 }
  - { offsetInCU: 0x101E, offset: 0x76C93, size: 0x8, addend: 0x0, symName: '__ZN63_$LT$alloc..alloc..Global$u20$as$u20$core..alloc..Allocator$GT$8allocate17h7165425281bb57f3E.407', symObjAddr: 0xAD82, symBinAddr: 0xB5F2, symSize: 0x10 }
  - { offsetInCU: 0x1ACE, offset: 0x77743, size: 0x8, addend: 0x0, symName: '__ZN69_$LT$alloc..boxed..Box$LT$T$C$A$GT$$u20$as$u20$core..fmt..Display$GT$3fmt17hb655489028964bffE', symObjAddr: 0xB260, symBinAddr: 0xB87C, symSize: 0x300 }
  - { offsetInCU: 0x3EBA, offset: 0x79B2F, size: 0x8, addend: 0x0, symName: __ZN5alloc3fmt6format17h2ba7b1746508e211E, symObjAddr: 0xAE1C, symBinAddr: 0xB62C, symSize: 0x35 }
  - { offsetInCU: 0x45BE, offset: 0x7A233, size: 0x8, addend: 0x0, symName: '__ZN4core3ptr63drop_in_place$LT$powersync_core..error..PowerSyncErrorCause$GT$17hb99a015a023fe0bdE', symObjAddr: 0xB6AD, symBinAddr: 0xBCC9, symSize: 0x5A }
  - { offsetInCU: 0x4834, offset: 0x7A4A9, size: 0x8, addend: 0x0, symName: '__ZN4core3ptr45drop_in_place$LT$serde_json..value..Value$GT$17hd2a1142b8d8eba4cE', symObjAddr: 0xC34F, symBinAddr: 0xC96B, symSize: 0x5F }
  - { offsetInCU: 0x48D6, offset: 0x7A54B, size: 0x8, addend: 0x0, symName: '__ZN4core3ptr105drop_in_place$LT$core..option..Option$LT$$LP$alloc..string..String$C$serde_json..value..Value$RP$$GT$$GT$17h4bdf3e8a2c74e5c7E', symObjAddr: 0xC3AE, symBinAddr: 0xC9CA, symSize: 0x13 }
  - { offsetInCU: 0x4905, offset: 0x7A57A, size: 0x8, addend: 0x0, symName: '__ZN4core3ptr77drop_in_place$LT$$LP$alloc..string..String$C$serde_json..value..Value$RP$$GT$17hff2bd0dc661ee70dE', symObjAddr: 0xC5BC, symBinAddr: 0xCBD8, symSize: 0x20 }
  - { offsetInCU: 0x4BCB, offset: 0x7A840, size: 0x8, addend: 0x0, symName: '__ZN4core3ptr62drop_in_place$LT$powersync_core..schema..table_info..Table$GT$17hc84c52c7cf64da7cE.441', symObjAddr: 0xE69D, symBinAddr: 0xECB9, symSize: 0x75 }
  - { offsetInCU: 0x5444, offset: 0x7B0B9, size: 0x8, addend: 0x0, symName: '__ZN115_$LT$core..iter..adapters..filter_map..FilterMap$LT$I$C$F$GT$$u20$as$u20$core..iter..traits..iterator..Iterator$GT$4next17h1f050c4733f59121E', symObjAddr: 0xE712, symBinAddr: 0xED2E, symSize: 0xEA }
  - { offsetInCU: 0x5D3B, offset: 0x7B9B0, size: 0x8, addend: 0x0, symName: '__ZN91_$LT$core..slice..iter..Iter$LT$T$GT$$u20$as$u20$core..iter..traits..iterator..Iterator$GT$4next17h3e8e69f78ecb9ffcE', symObjAddr: 0xE850, symBinAddr: 0xEE6C, symSize: 0x1A }
  - { offsetInCU: 0x8C5B, offset: 0x7E8D0, size: 0x8, addend: 0x0, symName: __ZN14powersync_core5views18powersync_view_sql17h139999d4c43e2e82E, symObjAddr: 0xCA36, symBinAddr: 0xD052, symSize: 0x437 }
  - { offsetInCU: 0x95C3, offset: 0x7F238, size: 0x8, addend: 0x0, symName: __ZN14powersync_core5views28powersync_trigger_delete_sql17hc4a5e7b74b1641b1E, symObjAddr: 0xCE6D, symBinAddr: 0xD489, symSize: 0x698 }
  - { offsetInCU: 0xA200, offset: 0x7FE75, size: 0x8, addend: 0x0, symName: __ZN14powersync_core5views28powersync_trigger_insert_sql17h403cf34875a2a1b4E, symObjAddr: 0xD505, symBinAddr: 0xDB21, symSize: 0x44A }
  - { offsetInCU: 0xA94A, offset: 0x805BF, size: 0x8, addend: 0x0, symName: __ZN14powersync_core5views28powersync_trigger_update_sql17hb49312626964e865E, symObjAddr: 0xD94F, symBinAddr: 0xDF6B, symSize: 0x9F2 }
  - { offsetInCU: 0xB8CF, offset: 0x81544, size: 0x8, addend: 0x0, symName: __ZN14powersync_core5views20json_object_fragment17hb07458423ef27ceaE, symObjAddr: 0xE37D, symBinAddr: 0xE999, symSize: 0x308 }
  - { offsetInCU: 0xC232, offset: 0x81EA7, size: 0x8, addend: 0x0, symName: '__ZN75_$LT$powersync_core..bson..error..BsonError$u20$as$u20$serde..de..Error$GT$6custom17h9f31a74c33a276fdE', symObjAddr: 0xADF3, symBinAddr: 0xB603, symSize: 0x29 }
  - { offsetInCU: 0xC2A6, offset: 0x81F1B, size: 0x8, addend: 0x0, symName: '__ZN75_$LT$powersync_core..bson..error..BsonError$u20$as$u20$serde..de..Error$GT$6custom17h9571c6e6da407982E', symObjAddr: 0xB560, symBinAddr: 0xBB7C, symSize: 0x30 }
  - { offsetInCU: 0xC5DE, offset: 0x82253, size: 0x8, addend: 0x0, symName: '__ZN77_$LT$powersync_core..bson..error..ErrorKind$u20$as$u20$core..fmt..Display$GT$3fmt17h0bd87896bbd3d366E', symObjAddr: 0xB094, symBinAddr: 0xB6B0, symSize: 0x1CC }
  - { offsetInCU: 0xCB0F, offset: 0x82784, size: 0x8, addend: 0x0, symName: __ZN14powersync_core4diff14powersync_diff17h6ebc700f84099ae1E, symObjAddr: 0xB707, symBinAddr: 0xBD23, symSize: 0xC03 }
  - { offsetInCU: 0xE21A, offset: 0x83E8F, size: 0x8, addend: 0x0, symName: __ZN14powersync_core9json_util20powersync_json_merge17ha37944b0bbdd0cf4E, symObjAddr: 0xC5DC, symBinAddr: 0xCBF8, symSize: 0x1B4 }
  - { offsetInCU: 0xE770, offset: 0x843E5, size: 0x8, addend: 0x0, symName: __ZN14powersync_core9json_util23powersync_strip_subtype17hc5ca3ae425567f9cE, symObjAddr: 0xC790, symBinAddr: 0xCDAC, symSize: 0x42 }
  - { offsetInCU: 0xE8C3, offset: 0x84538, size: 0x8, addend: 0x0, symName: __ZN14powersync_core4uuid7uuid_v417h8de8e3b3739aa098E, symObjAddr: 0xC7D2, symBinAddr: 0xCDEE, symSize: 0x264 }
  - { offsetInCU: 0xF507, offset: 0x8517C, size: 0x8, addend: 0x0, symName: '__ZN5alloc11collections5btree8navigate142_$LT$impl$u20$alloc..collections..btree..node..NodeRef$LT$BorrowType$C$K$C$V$C$alloc..collections..btree..node..marker..LeafOrInternal$GT$$GT$15first_leaf_edge17h0040ae2fd27b14d7E', symObjAddr: 0xACFA, symBinAddr: 0xB56A, symSize: 0x22 }
  - { offsetInCU: 0xF6C8, offset: 0x8533D, size: 0x8, addend: 0x0, symName: '__ZN5alloc11collections5btree8navigate142_$LT$impl$u20$alloc..collections..btree..node..NodeRef$LT$BorrowType$C$K$C$V$C$alloc..collections..btree..node..marker..LeafOrInternal$GT$$GT$15first_leaf_edge17hae2757264453f984E', symObjAddr: 0xAD1C, symBinAddr: 0xB58C, symSize: 0x22 }
  - { offsetInCU: 0xF889, offset: 0x854FE, size: 0x8, addend: 0x0, symName: '__ZN5alloc11collections5btree8navigate142_$LT$impl$u20$alloc..collections..btree..node..NodeRef$LT$BorrowType$C$K$C$V$C$alloc..collections..btree..node..marker..LeafOrInternal$GT$$GT$15first_leaf_edge17hd8e0d6fe363e53bdE', symObjAddr: 0xAD3E, symBinAddr: 0xB5AE, symSize: 0x22 }
  - { offsetInCU: 0xFA4A, offset: 0x856BF, size: 0x8, addend: 0x0, symName: '__ZN5alloc11collections5btree8navigate142_$LT$impl$u20$alloc..collections..btree..node..NodeRef$LT$BorrowType$C$K$C$V$C$alloc..collections..btree..node..marker..LeafOrInternal$GT$$GT$15first_leaf_edge17hf3bf235ca201c3ddE', symObjAddr: 0xAD60, symBinAddr: 0xB5D0, symSize: 0x22 }
  - { offsetInCU: 0xFD8E, offset: 0x85A03, size: 0x8, addend: 0x0, symName: __ZN5serde2de5Error12invalid_type17h5bcc9043c63176f7E, symObjAddr: 0xAD92, symBinAddr: 0x4247E, symSize: 0x61 }
  - { offsetInCU: 0xFDF1, offset: 0x85A66, size: 0x8, addend: 0x0, symName: __ZN5serde2de5Error13invalid_value17hfd918cea7cfb0113E, symObjAddr: 0xAE9F, symBinAddr: 0x424DF, symSize: 0x61 }
  - { offsetInCU: 0xFE54, offset: 0x85AC9, size: 0x8, addend: 0x0, symName: __ZN5serde2de5Error13missing_field17h674fc5a6d27863b0E, symObjAddr: 0xAF00, symBinAddr: 0x42540, symSize: 0x57 }
  - { offsetInCU: 0xFEAC, offset: 0x85B21, size: 0x8, addend: 0x0, symName: __ZN5serde2de5Error14invalid_length17hc4b8bc125ae9f264E, symObjAddr: 0xAF57, symBinAddr: 0x42597, symSize: 0x6F }
  - { offsetInCU: 0xFF0E, offset: 0x85B83, size: 0x8, addend: 0x0, symName: __ZN5serde2de5Error15duplicate_field17h976e7f6e9cd5718dE, symObjAddr: 0xAFC6, symBinAddr: 0x42606, symSize: 0x57 }
  - { offsetInCU: 0xFF66, offset: 0x85BDB, size: 0x8, addend: 0x0, symName: __ZN5serde2de5Error15unknown_variant17hcda752cced6377e1E, symObjAddr: 0xB01D, symBinAddr: 0x4265D, symSize: 0x77 }
  - { offsetInCU: 0x10279, offset: 0x85EEE, size: 0x8, addend: 0x0, symName: __ZN14powersync_core4bson5error9BsonError3new17h7f0220422c5ca9c4E, symObjAddr: 0xAE51, symBinAddr: 0xB661, symSize: 0x4E }
  - { offsetInCU: 0x103E9, offset: 0x8605E, size: 0x8, addend: 0x0, symName: '__ZN4core6result19Result$LT$T$C$E$GT$6expect17h9a54e1e62761bf6aE', symObjAddr: 0xB590, symBinAddr: 0xBBAC, symSize: 0x11 }
  - { offsetInCU: 0x105B6, offset: 0x8622B, size: 0x8, addend: 0x0, symName: __ZN5alloc6string6String4push17ha21468041bbc9eb0E.435, symObjAddr: 0xB5AE, symBinAddr: 0xBBCA, symSize: 0xFF }
  - { offsetInCU: 0x111D4, offset: 0x86E49, size: 0x8, addend: 0x0, symName: '__ZN4core6result19Result$LT$T$C$E$GT$7map_err17h67f44bd7e954a5d7E', symObjAddr: 0xC30A, symBinAddr: 0xC926, symSize: 0x45 }
  - { offsetInCU: 0x11B03, offset: 0x87778, size: 0x8, addend: 0x0, symName: '__ZN4core6result19Result$LT$T$C$E$GT$7map_err17haced183a40060da9E', symObjAddr: 0xE341, symBinAddr: 0xE95D, symSize: 0x3C }
  - { offsetInCU: 0x11CAA, offset: 0x8791F, size: 0x8, addend: 0x0, symName: '__ZN5alloc3vec16Vec$LT$T$C$A$GT$4push17haa5be136d1199608E', symObjAddr: 0xE7FC, symBinAddr: 0xEE18, symSize: 0x54 }
  - { offsetInCU: 0x1E, offset: 0x88323, size: 0x8, addend: 0x0, symName: '__ZN41_$LT$T$u20$as$u20$serde..de..Expected$GT$3fmt17h14f27f23b3dcea5aE', symObjAddr: 0xE86A, symBinAddr: 0xEE86, symSize: 0x23 }
  - { offsetInCU: 0x270, offset: 0x88575, size: 0x8, addend: 0x0, symName: '__ZN189_$LT$powersync_core..sync..line.._..$LT$impl$u20$serde..de..Deserialize$u20$for$u20$powersync_core..sync..line..Checkpoint$GT$..deserialize..__FieldVisitor$u20$as$u20$serde..de..Visitor$GT$9visit_str17h34f30da1c73b7b31E', symObjAddr: 0x16226, symBinAddr: 0x1606A, symSize: 0x82 }
  - { offsetInCU: 0x3E5, offset: 0x886EA, size: 0x8, addend: 0x0, symName: '__ZN193_$LT$powersync_core..sync..line.._..$LT$impl$u20$serde..de..Deserialize$u20$for$u20$powersync_core..sync..line..CheckpointDiff$GT$..deserialize..__FieldVisitor$u20$as$u20$serde..de..Visitor$GT$9visit_str17h7c213aa5dfd9cd58E', symObjAddr: 0x162A8, symBinAddr: 0x160EC, symSize: 0xA1 }
  - { offsetInCU: 0x5BE, offset: 0x888C3, size: 0x8, addend: 0x0, symName: '__ZN206_$LT$powersync_core..sync..line.._..$LT$impl$u20$serde..de..Deserialize$u20$for$u20$powersync_core..sync..line..CheckpointPartiallyComplete$GT$..deserialize..__FieldVisitor$u20$as$u20$serde..de..Visitor$GT$9visit_str17he2836c5dabb75243E', symObjAddr: 0x16349, symBinAddr: 0x1618D, symSize: 0x30 }
  - { offsetInCU: 0x66B, offset: 0x88970, size: 0x8, addend: 0x0, symName: '__ZN193_$LT$powersync_core..sync..line.._..$LT$impl$u20$serde..de..Deserialize$u20$for$u20$powersync_core..sync..line..BucketChecksum$GT$..deserialize..__FieldVisitor$u20$as$u20$serde..de..Visitor$GT$9visit_str17h44f5e5946102e9c6E', symObjAddr: 0x16379, symBinAddr: 0x161BD, symSize: 0xA1 }
  - { offsetInCU: 0x87C, offset: 0x88B81, size: 0x8, addend: 0x0, symName: '__ZN187_$LT$powersync_core..sync..line.._..$LT$impl$u20$serde..de..Deserialize$u20$for$u20$powersync_core..sync..line..DataLine$GT$..deserialize..__FieldVisitor$u20$as$u20$serde..de..Visitor$GT$9visit_str17hb5facecb94ee074cE', symObjAddr: 0x16BF6, symBinAddr: 0x16A3A, symSize: 0x63 }
  - { offsetInCU: 0x98D, offset: 0x88C92, size: 0x8, addend: 0x0, symName: '__ZN189_$LT$powersync_core..sync..line.._..$LT$impl$u20$serde..de..Deserialize$u20$for$u20$powersync_core..sync..line..OplogEntry$GT$..deserialize..__FieldVisitor$u20$as$u20$serde..de..Visitor$GT$9visit_str17h1e607d67e444b21eE', symObjAddr: 0x16C59, symBinAddr: 0x16A9D, symSize: 0x107 }
  - { offsetInCU: 0xCCB, offset: 0x88FD0, size: 0x8, addend: 0x0, symName: '__ZN185_$LT$powersync_core..sync..line.._..$LT$impl$u20$serde..de..Deserialize$u20$for$u20$powersync_core..sync..line..OpType$GT$..deserialize..__FieldVisitor$u20$as$u20$serde..de..Visitor$GT$9visit_str17h5b23d0f532b8b385E', symObjAddr: 0x175F8, symBinAddr: 0x1743C, symSize: 0xAF }
  - { offsetInCU: 0xEA5, offset: 0x891AA, size: 0x8, addend: 0x0, symName: '__ZN185_$LT$powersync_core..sync..line.._..$LT$impl$u20$serde..de..Deserialize$u20$for$u20$powersync_core..sync..line..OpType$GT$..deserialize..__FieldVisitor$u20$as$u20$serde..de..Visitor$GT$11visit_bytes17hebf26ef9ee1946aeE', symObjAddr: 0x176A7, symBinAddr: 0x174EB, symSize: 0x225 }
  - { offsetInCU: 0x211F, offset: 0x8A424, size: 0x8, addend: 0x0, symName: '__ZN14powersync_core4sync4line1_91_$LT$impl$u20$serde..de..Deserialize$u20$for$u20$powersync_core..sync..line..Checkpoint$GT$11deserialize17h5fd5d5e71b7e6e62E', symObjAddr: 0x15BC7, symBinAddr: 0x15A0B, symSize: 0x65F }
  - { offsetInCU: 0x299D, offset: 0x8ACA2, size: 0x8, addend: 0x0, symName: '__ZN14powersync_core4sync4line1_89_$LT$impl$u20$serde..de..Deserialize$u20$for$u20$powersync_core..sync..line..DataLine$GT$11deserialize17hd96f3399b58ffe95E', symObjAddr: 0x1641A, symBinAddr: 0x1625E, symSize: 0x7DC }
  - { offsetInCU: 0x3030, offset: 0x8B335, size: 0x8, addend: 0x0, symName: '__ZN14powersync_core4sync4line1_87_$LT$impl$u20$serde..de..Deserialize$u20$for$u20$powersync_core..sync..line..OpType$GT$11deserialize17h58b3c0527cc7bd8aE', symObjAddr: 0x16D60, symBinAddr: 0x16BA4, symSize: 0x200 }
  - { offsetInCU: 0x32BD, offset: 0x8B5C2, size: 0x8, addend: 0x0, symName: '__ZN14powersync_core4sync4line1_87_$LT$impl$u20$serde..de..Deserialize$u20$for$u20$powersync_core..sync..line..OpType$GT$11deserialize17hfc6f4111957ee371E', symObjAddr: 0x16F60, symBinAddr: 0x16DA4, symSize: 0x698 }
  - { offsetInCU: 0x3DCF, offset: 0x8C0D4, size: 0x8, addend: 0x0, symName: '__ZN147_$LT$$LT$powersync_core..sync..line..SyncLine$u20$as$u20$serde..de..Deserialize$GT$..deserialize..SyncLineVisitor$u20$as$u20$serde..de..Visitor$GT$10visit_enum17hbc126e386df73b7eE', symObjAddr: 0xF607, symBinAddr: 0xF44B, symSize: 0x34C1 }
  - { offsetInCU: 0x92D4, offset: 0x915D9, size: 0x8, addend: 0x0, symName: '__ZN14powersync_core6schema10table_info1_94_$LT$impl$u20$serde..de..Deserialize$u20$for$u20$powersync_core..schema..table_info..Table$GT$11deserialize17h6b31d66b71f2fd65E', symObjAddr: 0x12AC8, symBinAddr: 0x1290C, symSize: 0x29C0 }
  - { offsetInCU: 0xC57F, offset: 0x94884, size: 0x8, addend: 0x0, symName: '__ZN14powersync_core6schema10table_info1_105_$LT$impl$u20$serde..de..Deserialize$u20$for$u20$powersync_core..schema..table_info..PendingStatement$GT$11deserialize17h527a6e069b0b9c78E', symObjAddr: 0x15488, symBinAddr: 0x152CC, symSize: 0x73F }
  - { offsetInCU: 0xDA9A, offset: 0x95D9F, size: 0x8, addend: 0x0, symName: '__ZN4core3ptr59drop_in_place$LT$serde..__private..de..content..Content$GT$17h7fc5c16f4199828dE.763', symObjAddr: 0xF473, symBinAddr: 0xF2B7, symSize: 0xDD }
  - { offsetInCU: 0xDB32, offset: 0x95E37, size: 0x8, addend: 0x0, symName: '__ZN4core3ptr84drop_in_place$LT$alloc..boxed..Box$LT$serde..__private..de..content..Content$GT$$GT$17h474858d645a065d5E.765', symObjAddr: 0xF550, symBinAddr: 0xF394, symSize: 0x1F }
  - { offsetInCU: 0xDCF3, offset: 0x95FF8, size: 0x8, addend: 0x0, symName: '__ZN4core3ptr57drop_in_place$LT$powersync_core..sync..line..SyncLine$GT$17h145f225a62fac9aeE', symObjAddr: 0xF56F, symBinAddr: 0xF3B3, symSize: 0x98 }
  - { offsetInCU: 0x11EC6, offset: 0x9A1CB, size: 0x8, addend: 0x0, symName: '__ZN4core5slice29_$LT$impl$u20$$u5b$T$u5d$$GT$20binary_search_by_key28_$u7b$$u7b$closure$u7d$$u7d$17h282f98618cba95a8E', symObjAddr: 0xEB34, symBinAddr: 0xF150, symSize: 0x1C }
  - { offsetInCU: 0x123D0, offset: 0x9A6D5, size: 0x8, addend: 0x0, symName: __ZN4core4iter6traits8iterator8Iterator7collect17h2bf2858e33bfaaa1E, symObjAddr: 0xF3DC, symBinAddr: 0xF220, symSize: 0x97 }
  - { offsetInCU: 0x1340C, offset: 0x9B711, size: 0x8, addend: 0x0, symName: '__ZN81_$LT$alloc..vec..Vec$LT$T$C$A$GT$$u20$as$u20$core..ops..index..Index$LT$I$GT$$GT$5index17h928f66dd6ec34ddcE', symObjAddr: 0xEB1E, symBinAddr: 0xF13A, symSize: 0x16 }
  - { offsetInCU: 0x13C29, offset: 0x9BF2E, size: 0x8, addend: 0x0, symName: __ZN5serde2de7Visitor11visit_bytes17h35eb3c2d5b5a327bE, symObjAddr: 0xEB50, symBinAddr: 0x426D4, symSize: 0x30 }
  - { offsetInCU: 0x13C79, offset: 0x9BF7E, size: 0x8, addend: 0x0, symName: __ZN5serde2de7Visitor11visit_bytes17h39b5a4fe1b43a4abE, symObjAddr: 0xEB80, symBinAddr: 0x42704, symSize: 0x3D }
  - { offsetInCU: 0x13CC9, offset: 0x9BFCE, size: 0x8, addend: 0x0, symName: __ZN5serde2de7Visitor11visit_bytes17h596c30d484fec14fE, symObjAddr: 0xEBBD, symBinAddr: 0x42741, symSize: 0x39 }
  - { offsetInCU: 0x13D19, offset: 0x9C01E, size: 0x8, addend: 0x0, symName: __ZN5serde2de7Visitor11visit_bytes17h657e162708977247E, symObjAddr: 0xEBF6, symBinAddr: 0x4277A, symSize: 0x3D }
  - { offsetInCU: 0x13D69, offset: 0x9C06E, size: 0x8, addend: 0x0, symName: __ZN5serde2de7Visitor11visit_bytes17h8425c6d99249f3e9E, symObjAddr: 0xEC33, symBinAddr: 0x427B7, symSize: 0x43 }
  - { offsetInCU: 0x13DB9, offset: 0x9C0BE, size: 0x8, addend: 0x0, symName: __ZN5serde2de7Visitor11visit_bytes17h8520ceb44729f436E, symObjAddr: 0xEC76, symBinAddr: 0x427FA, symSize: 0x3D }
  - { offsetInCU: 0x13E09, offset: 0x9C10E, size: 0x8, addend: 0x0, symName: __ZN5serde2de7Visitor11visit_bytes17h8d3a57bf4963dc61E, symObjAddr: 0xECB3, symBinAddr: 0x42837, symSize: 0x3D }
  - { offsetInCU: 0x13E59, offset: 0x9C15E, size: 0x8, addend: 0x0, symName: __ZN5serde2de7Visitor11visit_bytes17h9c0935363d81a08dE, symObjAddr: 0xECF0, symBinAddr: 0x42874, symSize: 0x3C }
  - { offsetInCU: 0x13EA9, offset: 0x9C1AE, size: 0x8, addend: 0x0, symName: __ZN5serde2de7Visitor11visit_bytes17h9cccf4e2cdea2db1E, symObjAddr: 0xED2C, symBinAddr: 0x428B0, symSize: 0x43 }
  - { offsetInCU: 0x13EF9, offset: 0x9C1FE, size: 0x8, addend: 0x0, symName: __ZN5serde2de7Visitor9visit_i6417h42f88585d4b23738E, symObjAddr: 0xED6F, symBinAddr: 0x428F3, symSize: 0x35 }
  - { offsetInCU: 0x13F49, offset: 0x9C24E, size: 0x8, addend: 0x0, symName: __ZN5serde2de7Visitor9visit_i6417h6ec8407f6979ce0eE, symObjAddr: 0xEDA4, symBinAddr: 0x42928, symSize: 0x2C }
  - { offsetInCU: 0x13F99, offset: 0x9C29E, size: 0x8, addend: 0x0, symName: __ZN5serde2de7Visitor9visit_i6417h37184226308ad73eE, symObjAddr: 0xEDD0, symBinAddr: 0x42954, symSize: 0x35 }
  - { offsetInCU: 0x13FEA, offset: 0x9C2EF, size: 0x8, addend: 0x0, symName: __ZN5serde2de7Visitor9visit_i6417h270e37f95de4e748E, symObjAddr: 0xEE05, symBinAddr: 0x42989, symSize: 0x35 }
  - { offsetInCU: 0x1403A, offset: 0x9C33F, size: 0x8, addend: 0x0, symName: __ZN5serde2de7Visitor9visit_i6417h7111b738afc6ed16E, symObjAddr: 0xEE3A, symBinAddr: 0x429BE, symSize: 0x3F }
  - { offsetInCU: 0x1408A, offset: 0x9C38F, size: 0x8, addend: 0x0, symName: __ZN5serde2de7Visitor9visit_i6417h7c5012c317b67998E, symObjAddr: 0xEE79, symBinAddr: 0x429FD, symSize: 0x35 }
  - { offsetInCU: 0x140DA, offset: 0x9C3DF, size: 0x8, addend: 0x0, symName: __ZN5serde2de7Visitor9visit_i6417h5809a74dd1a458f3E, symObjAddr: 0xEEAE, symBinAddr: 0x42A32, symSize: 0x2C }
  - { offsetInCU: 0x1412A, offset: 0x9C42F, size: 0x8, addend: 0x0, symName: __ZN5serde2de7Visitor9visit_i6417h9e221e2d6f92d6d4E, symObjAddr: 0xEEDA, symBinAddr: 0x42A5E, symSize: 0x35 }
  - { offsetInCU: 0x1417A, offset: 0x9C47F, size: 0x8, addend: 0x0, symName: __ZN5serde2de7Visitor9visit_i6417h0afc8861198126f0E, symObjAddr: 0xEF0F, symBinAddr: 0x42A93, symSize: 0x39 }
  - { offsetInCU: 0x141CA, offset: 0x9C4CF, size: 0x8, addend: 0x0, symName: __ZN5serde2de7Visitor9visit_i6417h389b2a5182b46610E, symObjAddr: 0xEF48, symBinAddr: 0x42ACC, symSize: 0x39 }
  - { offsetInCU: 0x1421A, offset: 0x9C51F, size: 0x8, addend: 0x0, symName: __ZN5serde2de7Visitor9visit_i6417hbefa1d22408dc55fE, symObjAddr: 0xEF81, symBinAddr: 0x42B05, symSize: 0x35 }
  - { offsetInCU: 0x1426A, offset: 0x9C56F, size: 0x8, addend: 0x0, symName: __ZN5serde2de7Visitor9visit_i6417ha092e91ed35ec783E, symObjAddr: 0xEFB6, symBinAddr: 0x42B3A, symSize: 0x35 }
  - { offsetInCU: 0x142BA, offset: 0x9C5BF, size: 0x8, addend: 0x0, symName: __ZN5serde2de7Visitor9visit_i6417hd3d2dd4edd370546E, symObjAddr: 0xEFEB, symBinAddr: 0x42B6F, symSize: 0x39 }
  - { offsetInCU: 0x1430A, offset: 0x9C60F, size: 0x8, addend: 0x0, symName: __ZN5serde2de7Visitor9visit_i6417ha70c96ed94d7a837E, symObjAddr: 0xF024, symBinAddr: 0x42BA8, symSize: 0x38 }
  - { offsetInCU: 0x1435A, offset: 0x9C65F, size: 0x8, addend: 0x0, symName: __ZN5serde2de7Visitor9visit_i6417hb7cf6278026e0087E, symObjAddr: 0xF05C, symBinAddr: 0x42BE0, symSize: 0x3F }
  - { offsetInCU: 0x143AA, offset: 0x9C6AF, size: 0x8, addend: 0x0, symName: __ZN5serde2de7Visitor9visit_i6417h05b0b9133883c5d8E, symObjAddr: 0xF09B, symBinAddr: 0x42C1F, symSize: 0x35 }
  - { offsetInCU: 0x143FA, offset: 0x9C6FF, size: 0x8, addend: 0x0, symName: __ZN5serde2de7Visitor9visit_i6417h16abe4839b3d1bf1E, symObjAddr: 0xF0D0, symBinAddr: 0x42C54, symSize: 0x39 }
  - { offsetInCU: 0x1444A, offset: 0x9C74F, size: 0x8, addend: 0x0, symName: __ZN5serde2de7Visitor9visit_str17h009cad5855f79b87E, symObjAddr: 0xF109, symBinAddr: 0x42C8D, symSize: 0x3D }
  - { offsetInCU: 0x1449A, offset: 0x9C79F, size: 0x8, addend: 0x0, symName: __ZN5serde2de7Visitor9visit_str17h6236c4fb4464fea5E, symObjAddr: 0xF146, symBinAddr: 0x42CCA, symSize: 0x3D }
  - { offsetInCU: 0x144EA, offset: 0x9C7EF, size: 0x8, addend: 0x0, symName: __ZN5serde2de7Visitor9visit_str17h72396d3303880939E, symObjAddr: 0xF183, symBinAddr: 0x42D07, symSize: 0x30 }
  - { offsetInCU: 0x1453A, offset: 0x9C83F, size: 0x8, addend: 0x0, symName: __ZN5serde2de7Visitor9visit_str17h84c62a77e4e0c3beE, symObjAddr: 0xF1B3, symBinAddr: 0x42D37, symSize: 0x39 }
  - { offsetInCU: 0x1458A, offset: 0x9C88F, size: 0x8, addend: 0x0, symName: __ZN5serde2de7Visitor9visit_str17haa68ee201d8985deE, symObjAddr: 0xF1EC, symBinAddr: 0x42D70, symSize: 0x3C }
  - { offsetInCU: 0x145DA, offset: 0x9C8DF, size: 0x8, addend: 0x0, symName: __ZN5serde2de7Visitor9visit_str17hc0b170fafd5f59ebE, symObjAddr: 0xF228, symBinAddr: 0x42DAC, symSize: 0x43 }
  - { offsetInCU: 0x1462A, offset: 0x9C92F, size: 0x8, addend: 0x0, symName: __ZN5serde2de7Visitor9visit_str17hd396fd7c460fb29bE, symObjAddr: 0xF26B, symBinAddr: 0x42DEF, symSize: 0x3D }
  - { offsetInCU: 0x1467A, offset: 0x9C97F, size: 0x8, addend: 0x0, symName: __ZN5serde2de7Visitor9visit_str17he9ac01d705625a93E, symObjAddr: 0xF2A8, symBinAddr: 0x42E2C, symSize: 0x3D }
  - { offsetInCU: 0x146CA, offset: 0x9C9CF, size: 0x8, addend: 0x0, symName: __ZN5serde2de7Visitor9visit_str17hf14f530deff84ee7E, symObjAddr: 0xF2E5, symBinAddr: 0x42E69, symSize: 0x43 }
  - { offsetInCU: 0x15CCA, offset: 0x9DFCF, size: 0x8, addend: 0x0, symName: '__ZN41_$LT$T$u20$as$u20$serde..de..Expected$GT$3fmt17h14f27f23b3dcea5aE', symObjAddr: 0xE86A, symBinAddr: 0xEE86, symSize: 0x23 }
  - { offsetInCU: 0x15D42, offset: 0x9E047, size: 0x8, addend: 0x0, symName: '__ZN41_$LT$T$u20$as$u20$serde..de..Expected$GT$3fmt17h1c1f423b2721e93aE', symObjAddr: 0xE88D, symBinAddr: 0xEEA9, symSize: 0x23 }
  - { offsetInCU: 0x15DBA, offset: 0x9E0BF, size: 0x8, addend: 0x0, symName: '__ZN41_$LT$T$u20$as$u20$serde..de..Expected$GT$3fmt17h209ed467d423de67E', symObjAddr: 0xE8B0, symBinAddr: 0xEECC, symSize: 0x23 }
  - { offsetInCU: 0x15E32, offset: 0x9E137, size: 0x8, addend: 0x0, symName: '__ZN41_$LT$T$u20$as$u20$serde..de..Expected$GT$3fmt17h29b2a47673908728E', symObjAddr: 0xE8D3, symBinAddr: 0xEEEF, symSize: 0x23 }
  - { offsetInCU: 0x15EAA, offset: 0x9E1AF, size: 0x8, addend: 0x0, symName: '__ZN41_$LT$T$u20$as$u20$serde..de..Expected$GT$3fmt17h315044283c4a31c7E', symObjAddr: 0xE8F6, symBinAddr: 0xEF12, symSize: 0x23 }
  - { offsetInCU: 0x15F22, offset: 0x9E227, size: 0x8, addend: 0x0, symName: '__ZN41_$LT$T$u20$as$u20$serde..de..Expected$GT$3fmt17h31f3f3fd782bc0edE', symObjAddr: 0xE919, symBinAddr: 0xEF35, symSize: 0x23 }
  - { offsetInCU: 0x15F9A, offset: 0x9E29F, size: 0x8, addend: 0x0, symName: '__ZN41_$LT$T$u20$as$u20$serde..de..Expected$GT$3fmt17h60e0e986cfa61542E', symObjAddr: 0xE93C, symBinAddr: 0xEF58, symSize: 0x42 }
  - { offsetInCU: 0x16012, offset: 0x9E317, size: 0x8, addend: 0x0, symName: '__ZN41_$LT$T$u20$as$u20$serde..de..Expected$GT$3fmt17h6b0075e76f804eb8E', symObjAddr: 0xE97E, symBinAddr: 0xEF9A, symSize: 0x23 }
  - { offsetInCU: 0x1608A, offset: 0x9E38F, size: 0x8, addend: 0x0, symName: '__ZN41_$LT$T$u20$as$u20$serde..de..Expected$GT$3fmt17h6d0cbb6c0aad9ffbE', symObjAddr: 0xE9A1, symBinAddr: 0xEFBD, symSize: 0x23 }
  - { offsetInCU: 0x16102, offset: 0x9E407, size: 0x8, addend: 0x0, symName: '__ZN41_$LT$T$u20$as$u20$serde..de..Expected$GT$3fmt17h7818a6eacb7f15afE', symObjAddr: 0xE9C4, symBinAddr: 0xEFE0, symSize: 0x42 }
  - { offsetInCU: 0x1617A, offset: 0x9E47F, size: 0x8, addend: 0x0, symName: '__ZN41_$LT$T$u20$as$u20$serde..de..Expected$GT$3fmt17h92ee75cb8ec3351eE', symObjAddr: 0xEA06, symBinAddr: 0xF022, symSize: 0x23 }
  - { offsetInCU: 0x161F2, offset: 0x9E4F7, size: 0x8, addend: 0x0, symName: '__ZN41_$LT$T$u20$as$u20$serde..de..Expected$GT$3fmt17hb217aed08763c8b1E', symObjAddr: 0xEA29, symBinAddr: 0xF045, symSize: 0x23 }
  - { offsetInCU: 0x1626A, offset: 0x9E56F, size: 0x8, addend: 0x0, symName: '__ZN41_$LT$T$u20$as$u20$serde..de..Expected$GT$3fmt17hb369c423ef90fa60E', symObjAddr: 0xEA4C, symBinAddr: 0xF068, symSize: 0x23 }
  - { offsetInCU: 0x162E2, offset: 0x9E5E7, size: 0x8, addend: 0x0, symName: '__ZN41_$LT$T$u20$as$u20$serde..de..Expected$GT$3fmt17hcc1b13d38ec0748fE', symObjAddr: 0xEA6F, symBinAddr: 0xF08B, symSize: 0x23 }
  - { offsetInCU: 0x1635A, offset: 0x9E65F, size: 0x8, addend: 0x0, symName: '__ZN41_$LT$T$u20$as$u20$serde..de..Expected$GT$3fmt17hcd977f3e8e41788bE', symObjAddr: 0xEA92, symBinAddr: 0xF0AE, symSize: 0x23 }
  - { offsetInCU: 0x163D2, offset: 0x9E6D7, size: 0x8, addend: 0x0, symName: '__ZN41_$LT$T$u20$as$u20$serde..de..Expected$GT$3fmt17hd6555c9871225ff9E', symObjAddr: 0xEAB5, symBinAddr: 0xF0D1, symSize: 0x23 }
  - { offsetInCU: 0x1644A, offset: 0x9E74F, size: 0x8, addend: 0x0, symName: '__ZN41_$LT$T$u20$as$u20$serde..de..Expected$GT$3fmt17hdb00fdad62758b56E', symObjAddr: 0xEAD8, symBinAddr: 0xF0F4, symSize: 0x23 }
  - { offsetInCU: 0x164C2, offset: 0x9E7C7, size: 0x8, addend: 0x0, symName: '__ZN41_$LT$T$u20$as$u20$serde..de..Expected$GT$3fmt17hfe9f65938db73b94E', symObjAddr: 0xEAFB, symBinAddr: 0xF117, symSize: 0x23 }
  - { offsetInCU: 0x180CC, offset: 0xA03D1, size: 0x8, addend: 0x0, symName: __ZN14powersync_core6schema10table_info5Table9from_json17h165e8540568740f9E, symObjAddr: 0xF328, symBinAddr: 0xF16C, symSize: 0xB4 }
  - { offsetInCU: 0x1E, offset: 0xA0B67, size: 0x8, addend: 0x0, symName: __ZN4core5slice4sort6stable14driftsort_main17h2231ad2d3d09cde1E, symObjAddr: 0x178CC, symBinAddr: 0x17710, symSize: 0xBD }
  - { offsetInCU: 0x115, offset: 0xA0C5E, size: 0x8, addend: 0x0, symName: '__ZN45_$LT$T$u20$as$u20$alloc..string..ToString$GT$9to_string17hd68bf5cdad2189a2E', symObjAddr: 0x1B637, symBinAddr: 0x1B47B, symSize: 0x71 }
  - { offsetInCU: 0x549, offset: 0xA1092, size: 0x8, addend: 0x0, symName: '__ZN5alloc5slice29_$LT$impl$u20$$u5b$T$u5d$$GT$11sort_by_key28_$u7b$$u7b$closure$u7d$$u7d$17h10e6360ea89e3ca6E', symObjAddr: 0x19254, symBinAddr: 0x19098, symSize: 0xA }
  - { offsetInCU: 0xCC8, offset: 0xA1811, size: 0x8, addend: 0x0, symName: '__ZN4core3ptr58drop_in_place$LT$powersync_core..error..PowerSyncError$GT$17h46fe98a5095a9dd0E.948', symObjAddr: 0x1B6A8, symBinAddr: 0x1B4EC, symSize: 0xA8 }
  - { offsetInCU: 0x11CF, offset: 0xA1D18, size: 0x8, addend: 0x0, symName: '__ZN4core3cmp5impls70_$LT$impl$u20$core..cmp..PartialOrd$LT$$RF$B$GT$$u20$for$u20$$RF$A$GT$2lt17hc12d250bde1de7a3E', symObjAddr: 0x1925E, symBinAddr: 0x190A2, symSize: 0xE }
  - { offsetInCU: 0x2B38, offset: 0xA3681, size: 0x8, addend: 0x0, symName: __ZN4core5slice4sort6stable14driftsort_main17h2231ad2d3d09cde1E, symObjAddr: 0x178CC, symBinAddr: 0x17710, symSize: 0xBD }
  - { offsetInCU: 0x2F88, offset: 0xA3AD1, size: 0x8, addend: 0x0, symName: __ZN4core5slice4sort6stable5drift4sort17h9c3b9a802f4747d1E, symObjAddr: 0x17989, symBinAddr: 0x177CD, symSize: 0x55D }
  - { offsetInCU: 0x3CD7, offset: 0xA4820, size: 0x8, addend: 0x0, symName: __ZN4core5slice4sort6stable5drift16stable_quicksort17ha430ef8e5341f86dE, symObjAddr: 0x17F08, symBinAddr: 0x17D4C, symSize: 0x23 }
  - { offsetInCU: 0x3EE0, offset: 0xA4A29, size: 0x8, addend: 0x0, symName: __ZN4core5slice4sort6stable5drift4sort17h6217e9d5f354e667E, symObjAddr: 0x18682, symBinAddr: 0x184C6, symSize: 0x4B9 }
  - { offsetInCU: 0x4940, offset: 0xA5489, size: 0x8, addend: 0x0, symName: __ZN4core5slice4sort6stable5drift16stable_quicksort17h638962bee5cc26d7E, symObjAddr: 0x18B6F, symBinAddr: 0x189B3, symSize: 0x23 }
  - { offsetInCU: 0x4B49, offset: 0xA5692, size: 0x8, addend: 0x0, symName: __ZN4core5slice4sort6stable5drift4sort17h35703f1816cd7f8cE, symObjAddr: 0x19361, symBinAddr: 0x191A5, symSize: 0x4B9 }
  - { offsetInCU: 0x55A9, offset: 0xA60F2, size: 0x8, addend: 0x0, symName: __ZN4core5slice4sort6stable5drift16stable_quicksort17ha107a41956d60650E, symObjAddr: 0x1981A, symBinAddr: 0x1965E, symSize: 0x23 }
  - { offsetInCU: 0x57B2, offset: 0xA62FB, size: 0x8, addend: 0x0, symName: __ZN4core5slice4sort6stable5drift4sort17h0ca792630dba82caE, symObjAddr: 0x19FD1, symBinAddr: 0x19E15, symSize: 0x4B9 }
  - { offsetInCU: 0x6212, offset: 0xA6D5B, size: 0x8, addend: 0x0, symName: __ZN4core5slice4sort6stable5drift16stable_quicksort17hf93d296b5fa2d939E, symObjAddr: 0x1A48A, symBinAddr: 0x1A2CE, symSize: 0x23 }
  - { offsetInCU: 0x6630, offset: 0xA7179, size: 0x8, addend: 0x0, symName: '__ZN4core5slice4sort6stable9quicksort9quicksort28_$u7b$$u7b$closure$u7d$$u7d$17hac2b7f263bbb1e5fE', symObjAddr: 0x19EFF, symBinAddr: 0x19D43, symSize: 0x1F }
  - { offsetInCU: 0x6698, offset: 0xA71E1, size: 0x8, addend: 0x0, symName: __ZN4core5slice4sort6stable9quicksort9quicksort17hdfb5b73214e5bd5bE, symObjAddr: 0x17F2B, symBinAddr: 0x17D6F, symSize: 0x696 }
  - { offsetInCU: 0x7B84, offset: 0xA86CD, size: 0x8, addend: 0x0, symName: __ZN4core5slice4sort6stable9quicksort9quicksort17h41f088167b7ec2dfE, symObjAddr: 0x18B92, symBinAddr: 0x189D6, symSize: 0x6C2 }
  - { offsetInCU: 0x8FCA, offset: 0xA9B13, size: 0x8, addend: 0x0, symName: __ZN4core5slice4sort6stable9quicksort9quicksort17h3a3ec28617da2deaE, symObjAddr: 0x1983D, symBinAddr: 0x19681, symSize: 0x6C2 }
  - { offsetInCU: 0xA410, offset: 0xAAF59, size: 0x8, addend: 0x0, symName: __ZN4core5slice4sort6stable9quicksort9quicksort17hdcd64b64c101ad42E, symObjAddr: 0x1A4AD, symBinAddr: 0x1A2F1, symSize: 0x6C2 }
  - { offsetInCU: 0xB651, offset: 0xAC19A, size: 0x8, addend: 0x0, symName: __ZN4core5slice4sort6stable14driftsort_main17h84881d309a9f911eE, symObjAddr: 0x185CF, symBinAddr: 0x18413, symSize: 0xB3 }
  - { offsetInCU: 0xB8B3, offset: 0xAC3FC, size: 0x8, addend: 0x0, symName: __ZN4core5slice4sort6stable14driftsort_main17hc46bf8609821c92aE, symObjAddr: 0x192AE, symBinAddr: 0x190F2, symSize: 0xB3 }
  - { offsetInCU: 0xBB15, offset: 0xAC65E, size: 0x8, addend: 0x0, symName: __ZN4core5slice4sort6stable14driftsort_main17hd7a147b48b770fb1E, symObjAddr: 0x19F1E, symBinAddr: 0x19D62, symSize: 0xB3 }
  - { offsetInCU: 0xC2E9, offset: 0xACE32, size: 0x8, addend: 0x0, symName: '__ZN110_$LT$core..ops..range..RangeFrom$LT$usize$GT$$u20$as$u20$core..slice..index..SliceIndex$LT$$u5b$T$u5d$$GT$$GT$9index_mut17hb6e24eaa07811ac7E', symObjAddr: 0x17EE6, symBinAddr: 0x17D2A, symSize: 0x22 }
  - { offsetInCU: 0xC414, offset: 0xACF5D, size: 0x8, addend: 0x0, symName: '__ZN110_$LT$core..ops..range..RangeFrom$LT$usize$GT$$u20$as$u20$core..slice..index..SliceIndex$LT$$u5b$T$u5d$$GT$$GT$9index_mut17he8870d66f991d1e8E', symObjAddr: 0x18B3B, symBinAddr: 0x1897F, symSize: 0x1C }
  - { offsetInCU: 0xC599, offset: 0xAD0E2, size: 0x8, addend: 0x0, symName: '__ZN108_$LT$core..ops..range..RangeTo$LT$usize$GT$$u20$as$u20$core..slice..index..SliceIndex$LT$$u5b$T$u5d$$GT$$GT$9index_mut17h36534c825b115057E', symObjAddr: 0x18B57, symBinAddr: 0x1899B, symSize: 0x18 }
  - { offsetInCU: 0xC88B, offset: 0xAD3D4, size: 0x8, addend: 0x0, symName: '__ZN4core5slice29_$LT$impl$u20$$u5b$T$u5d$$GT$7reverse17hb1e4b3d5bdb0d5d7E', symObjAddr: 0x1926C, symBinAddr: 0x190B0, symSize: 0x42 }
  - { offsetInCU: 0xCAC9, offset: 0xAD612, size: 0x8, addend: 0x0, symName: __ZN4core3ops8function5FnMut8call_mut17h9f8fb9823b8d9359E, symObjAddr: 0x185C1, symBinAddr: 0x18405, symSize: 0xE }
  - { offsetInCU: 0xD653, offset: 0xAE19C, size: 0x8, addend: 0x0, symName: __ZN14powersync_core9vtab_util11vtab_result17h21b8ef30d6daad56E, symObjAddr: 0x1B5C6, symBinAddr: 0x1B40A, symSize: 0x71 }
  - { offsetInCU: 0xD7D4, offset: 0xAE31D, size: 0x8, addend: 0x0, symName: __ZN14powersync_core9vtab_util11vtab_result17h3c62cd2f8b7ccfdaE, symObjAddr: 0x1B750, symBinAddr: 0x1B594, symSize: 0x6A }
  - { offsetInCU: 0xE20A, offset: 0xAED53, size: 0x8, addend: 0x0, symName: '__ZN5serde2de5impls82_$LT$impl$u20$serde..de..Deserialize$u20$for$u20$core..option..Option$LT$T$GT$$GT$11deserialize17h0ffadf9786527816E', symObjAddr: 0x1AB6F, symBinAddr: 0x1A9B3, symSize: 0x124 }
  - { offsetInCU: 0xE406, offset: 0xAEF4F, size: 0x8, addend: 0x0, symName: '__ZN5serde2de5impls82_$LT$impl$u20$serde..de..Deserialize$u20$for$u20$core..option..Option$LT$T$GT$$GT$11deserialize17h118a5434d2abb222E', symObjAddr: 0x1AC93, symBinAddr: 0x1AAD7, symSize: 0x265 }
  - { offsetInCU: 0xE7AA, offset: 0xAF2F3, size: 0x8, addend: 0x0, symName: '__ZN5serde2de5impls82_$LT$impl$u20$serde..de..Deserialize$u20$for$u20$core..option..Option$LT$T$GT$$GT$11deserialize17h15246d4f5296d0e5E', symObjAddr: 0x1AEF8, symBinAddr: 0x1AD3C, symSize: 0x7D }
  - { offsetInCU: 0xE8B5, offset: 0xAF3FE, size: 0x8, addend: 0x0, symName: '__ZN5serde2de5impls82_$LT$impl$u20$serde..de..Deserialize$u20$for$u20$core..option..Option$LT$T$GT$$GT$11deserialize17h298888d2ff2c0229E', symObjAddr: 0x1AF75, symBinAddr: 0x1ADB9, symSize: 0xA2 }
  - { offsetInCU: 0xEA13, offset: 0xAF55C, size: 0x8, addend: 0x0, symName: '__ZN5serde2de5impls82_$LT$impl$u20$serde..de..Deserialize$u20$for$u20$core..option..Option$LT$T$GT$$GT$11deserialize17h4853b90ee8ebd012E', symObjAddr: 0x1B017, symBinAddr: 0x1AE5B, symSize: 0x35D }
  - { offsetInCU: 0xEE66, offset: 0xAF9AF, size: 0x8, addend: 0x0, symName: '__ZN5serde2de5impls82_$LT$impl$u20$serde..de..Deserialize$u20$for$u20$core..option..Option$LT$T$GT$$GT$11deserialize17h86ef683a0a2ae313E', symObjAddr: 0x1B374, symBinAddr: 0x1B1B8, symSize: 0x7B }
  - { offsetInCU: 0xEF9F, offset: 0xAFAE8, size: 0x8, addend: 0x0, symName: '__ZN5serde2de5impls82_$LT$impl$u20$serde..de..Deserialize$u20$for$u20$core..option..Option$LT$T$GT$$GT$11deserialize17h933f12635a84f3a6E', symObjAddr: 0x1B3EF, symBinAddr: 0x1B233, symSize: 0x87 }
  - { offsetInCU: 0xF118, offset: 0xAFC61, size: 0x8, addend: 0x0, symName: '__ZN5serde2de5impls82_$LT$impl$u20$serde..de..Deserialize$u20$for$u20$core..option..Option$LT$T$GT$$GT$11deserialize17ha57fe589c0f52a24E', symObjAddr: 0x1B476, symBinAddr: 0x1B2BA, symSize: 0xA2 }
  - { offsetInCU: 0xF24A, offset: 0xAFD93, size: 0x8, addend: 0x0, symName: '__ZN5serde2de5impls82_$LT$impl$u20$serde..de..Deserialize$u20$for$u20$core..option..Option$LT$T$GT$$GT$11deserialize17hffafc45188ac870bE', symObjAddr: 0x1B518, symBinAddr: 0x1B35C, symSize: 0xAE }
  - { offsetInCU: 0x1E, offset: 0xB12E3, size: 0x8, addend: 0x0, symName: '__ZN41_$LT$T$u20$as$u20$serde..de..Expected$GT$3fmt17h76fede3577a34ddbE', symObjAddr: 0x1B7BA, symBinAddr: 0x1B5FE, symSize: 0x42 }
  - { offsetInCU: 0x205, offset: 0xB14CA, size: 0x8, addend: 0x0, symName: '__ZN58_$LT$alloc..string..String$u20$as$u20$core..fmt..Write$GT$10write_char17h99abeeb8cff35533E.988', symObjAddr: 0x1C6E4, symBinAddr: 0x1C4B0, symSize: 0x101 }
  - { offsetInCU: 0x21B3, offset: 0xB3478, size: 0x8, addend: 0x0, symName: '__ZN4core3ptr65drop_in_place$LT$powersync_core..checkpoint..CheckpointResult$GT$17hdbeee6ea940df8ffE', symObjAddr: 0x1C3A6, symBinAddr: 0x1C172, symSize: 0x29 }
  - { offsetInCU: 0x2240, offset: 0xB3505, size: 0x8, addend: 0x0, symName: '__ZN4core3ptr97drop_in_place$LT$alloc..vec..Vec$LT$powersync_core..sync..checkpoint..OwnedBucketChecksum$GT$$GT$17h3a520c8a7fcd3a96E', symObjAddr: 0x1C3CF, symBinAddr: 0x1C19B, symSize: 0x4D }
  - { offsetInCU: 0x238F, offset: 0xB3654, size: 0x8, addend: 0x0, symName: '__ZN4core3ptr59drop_in_place$LT$powersync_core..sync..line..Checkpoint$GT$17ha58b894878e8f19dE', symObjAddr: 0x1C41C, symBinAddr: 0x1C1E8, symSize: 0x2A }
  - { offsetInCU: 0x266C, offset: 0xB3931, size: 0x8, addend: 0x0, symName: '__ZN4core3ptr99drop_in_place$LT$powersync_core..sync..storage_adapter..StorageAdapter..sync_local..PartialArgs$GT$17hc07e6739bc311be0E', symObjAddr: 0x1DC0C, symBinAddr: 0x1D9D8, symSize: 0x1E }
  - { offsetInCU: 0x2DA3, offset: 0xB4068, size: 0x8, addend: 0x0, symName: '__ZN44_$LT$$RF$T$u20$as$u20$core..fmt..Display$GT$3fmt17h43f770a0dec447bdE', symObjAddr: 0x1B80B, symBinAddr: 0x1B64F, symSize: 0x165 }
  - { offsetInCU: 0x2EEC, offset: 0xB41B1, size: 0x8, addend: 0x0, symName: '__ZN44_$LT$$RF$T$u20$as$u20$core..fmt..Display$GT$3fmt17hcc2e5a80427e77d9E', symObjAddr: 0x1B970, symBinAddr: 0x1B7B4, symSize: 0x138 }
  - { offsetInCU: 0x63A2, offset: 0xB7667, size: 0x8, addend: 0x0, symName: '__ZN4core3cmp5impls69_$LT$impl$u20$core..cmp..PartialEq$LT$$RF$B$GT$$u20$for$u20$$RF$A$GT$2eq17hca003bfbe47a309eE.989', symObjAddr: 0x1C899, symBinAddr: 0x1C665, symSize: 0x1B }
  - { offsetInCU: 0x679F, offset: 0xB7A64, size: 0x8, addend: 0x0, symName: '__ZN145_$LT$$LT$powersync_core..sync..checksum..Checksum$u20$as$u20$serde..de..Deserialize$GT$..deserialize..MyVisitor$u20$as$u20$serde..de..Visitor$GT$9visit_i6417h7cc5ac6c1521be4cE', symObjAddr: 0x1CF34, symBinAddr: 0x1CD00, symSize: 0x52 }
  - { offsetInCU: 0x68F0, offset: 0xB7BB5, size: 0x8, addend: 0x0, symName: '__ZN145_$LT$$LT$powersync_core..sync..checksum..Checksum$u20$as$u20$serde..de..Deserialize$GT$..deserialize..MyVisitor$u20$as$u20$serde..de..Visitor$GT$9visit_i6417hf2b04c6cba170902E', symObjAddr: 0x1CF86, symBinAddr: 0x1CD52, symSize: 0x52 }
  - { offsetInCU: 0x6A43, offset: 0xB7D08, size: 0x8, addend: 0x0, symName: '__ZN83_$LT$powersync_core..sync..checksum..Checksum$u20$as$u20$serde..de..Deserialize$GT$11deserialize17h30399d392ff8333eE', symObjAddr: 0x1CAE2, symBinAddr: 0x1C8AE, symSize: 0xFD }
  - { offsetInCU: 0x6B82, offset: 0xB7E47, size: 0x8, addend: 0x0, symName: '__ZN83_$LT$powersync_core..sync..checksum..Checksum$u20$as$u20$serde..de..Deserialize$GT$11deserialize17hd96fb6083265f4efE', symObjAddr: 0x1CBDF, symBinAddr: 0x1C9AB, symSize: 0x355 }
  - { offsetInCU: 0x6FD5, offset: 0xB829A, size: 0x8, addend: 0x0, symName: '__ZN79_$LT$powersync_core..sync..checksum..Checksum$u20$as$u20$core..fmt..Display$GT$3fmt17h11296648df7ce644E', symObjAddr: 0x1CA82, symBinAddr: 0x1C84E, symSize: 0x60 }
  - { offsetInCU: 0x749E, offset: 0xB8763, size: 0x8, addend: 0x0, symName: '__ZN94_$LT$powersync_core..sync..storage_adapter..CheckpointResult$u20$as$u20$core..fmt..Display$GT$3fmt17ha76c00a22ecb4d76E', symObjAddr: 0x1DC7D, symBinAddr: 0x1DA49, symSize: 0x1DC }
  - { offsetInCU: 0x8272, offset: 0xB9537, size: 0x8, addend: 0x0, symName: '__ZN116_$LT$powersync_core..error..PowerSyncError$u20$as$u20$core..convert..From$LT$sqlite_nostd..nostd..ResultCode$GT$$GT$4from17h5796cbb506170b6aE', symObjAddr: 0x1C2C2, symBinAddr: 0x1C08E, symSize: 0x32 }
  - { offsetInCU: 0x82EB, offset: 0xB95B0, size: 0x8, addend: 0x0, symName: '__ZN76_$LT$powersync_core..error..PowerSyncError$u20$as$u20$core..fmt..Display$GT$3fmt17hfe8bf7dec0ae6749E', symObjAddr: 0x1CA6B, symBinAddr: 0x1C837, symSize: 0x17 }
  - { offsetInCU: 0x8317, offset: 0xB95DC, size: 0x8, addend: 0x0, symName: '__ZN125_$LT$powersync_core..error..PowerSyncError$u20$as$u20$core..convert..From$LT$powersync_core..error..RawPowerSyncError$GT$$GT$4from17h035a59d53895f7a3E', symObjAddr: 0x1C815, symBinAddr: 0x1C5E1, symSize: 0x33 }
  - { offsetInCU: 0x865A, offset: 0xB991F, size: 0x8, addend: 0x0, symName: __ZN14powersync_core10checkpoint29powersync_validate_checkpoint17h55aba50652fbea2fE, symObjAddr: 0x1BB20, symBinAddr: 0x1B8EC, symSize: 0x75E }
  - { offsetInCU: 0x9DBA, offset: 0xBB07F, size: 0x8, addend: 0x0, symName: '__ZN95_$LT$$BP$mut$u20$sqlite3_capi..bindings..sqlite3$u20$as$u20$sqlite_nostd..nostd..Connection$GT$10prepare_v217hdce128889f6400baE', symObjAddr: 0x1D08B, symBinAddr: 0x1CE57, symSize: 0x66 }
  - { offsetInCU: 0xA188, offset: 0xBB44D, size: 0x8, addend: 0x0, symName: '__ZN86_$LT$serde_json..ser..Compound$LT$W$C$F$GT$$u20$as$u20$serde..ser..SerializeStruct$GT$3end17h81fafa3c29bfe915E', symObjAddr: 0x1C8B4, symBinAddr: 0x1C680, symSize: 0x25 }
  - { offsetInCU: 0xA408, offset: 0xBB6CD, size: 0x8, addend: 0x0, symName: '__ZN95_$LT$$RF$mut$u20$serde_json..ser..Serializer$LT$W$C$F$GT$$u20$as$u20$serde..ser..Serializer$GT$16serialize_struct17h1e484eaa7568945eE', symObjAddr: 0x1C848, symBinAddr: 0x1C614, symSize: 0x51 }
  - { offsetInCU: 0xA94A, offset: 0xBBC0F, size: 0x8, addend: 0x0, symName: '__ZN60_$LT$$RF$mut$u20$W$u20$as$u20$serde_json..io..imp..Write$GT$9write_all17h8936a0b975ff0775E', symObjAddr: 0x1C8D9, symBinAddr: 0x1C6A5, symSize: 0xE }
  - { offsetInCU: 0xAE6B, offset: 0xBC130, size: 0x8, addend: 0x0, symName: '__ZN41_$LT$T$u20$as$u20$serde..de..Expected$GT$3fmt17h76fede3577a34ddbE', symObjAddr: 0x1B7BA, symBinAddr: 0x1B5FE, symSize: 0x42 }
  - { offsetInCU: 0xAEE9, offset: 0xBC1AE, size: 0x8, addend: 0x0, symName: __ZN5serde2de7Visitor11visit_bytes17h87e4fd76ba6eb6a8E, symObjAddr: 0x1BAA8, symBinAddr: 0x42EAC, symSize: 0x3C }
  - { offsetInCU: 0xAF3A, offset: 0xBC1FF, size: 0x8, addend: 0x0, symName: __ZN5serde2de7Visitor9visit_str17hce6a70ffddb29474E, symObjAddr: 0x1BAE4, symBinAddr: 0x42EE8, symSize: 0x3C }
  - { offsetInCU: 0xB222, offset: 0xBC4E7, size: 0x8, addend: 0x0, symName: __ZN4core3fmt9Formatter9write_fmt17h6547b3ea83dd1893E.957, symObjAddr: 0x1B7FC, symBinAddr: 0x1B640, symSize: 0xF }
  - { offsetInCU: 0xB881, offset: 0xBCB46, size: 0x8, addend: 0x0, symName: __ZN14powersync_core5error14PowerSyncError17as_argument_error17h41227e99cb8562faE, symObjAddr: 0x1C27E, symBinAddr: 0x1C04A, symSize: 0x44 }
  - { offsetInCU: 0xB8CA, offset: 0xBCB8F, size: 0x8, addend: 0x0, symName: '__ZN5alloc7raw_vec20RawVecInner$LT$A$GT$16with_capacity_in17he74f50306fe84c20E', symObjAddr: 0x1C2F4, symBinAddr: 0x1C0C0, symSize: 0x3E }
  - { offsetInCU: 0xB992, offset: 0xBCC57, size: 0x8, addend: 0x0, symName: '__ZN5alloc3vec12Vec$LT$T$GT$13with_capacity17h354b9647b6b33f36E', symObjAddr: 0x1C332, symBinAddr: 0x1C0FE, symSize: 0x2C }
  - { offsetInCU: 0xB9F8, offset: 0xBCCBD, size: 0x8, addend: 0x0, symName: '__ZN4core6result19Result$LT$T$C$E$GT$7map_err17h82db355b539a691eE', symObjAddr: 0x1C35E, symBinAddr: 0x1C12A, symSize: 0x48 }
  - { offsetInCU: 0xBC67, offset: 0xBCF2C, size: 0x8, addend: 0x0, symName: __ZN14powersync_core5error14PowerSyncError12apply_to_ctx17hb45d40f10c77f17cE, symObjAddr: 0x1C446, symBinAddr: 0x1C212, symSize: 0x19E }
  - { offsetInCU: 0xC104, offset: 0xBD3C9, size: 0x8, addend: 0x0, symName: __ZN5alloc6string6String10insert_str17hff208cab5e9a0df4E, symObjAddr: 0x1C5E4, symBinAddr: 0x1C3B0, symSize: 0x82 }
  - { offsetInCU: 0xC2DF, offset: 0xBD5A4, size: 0x8, addend: 0x0, symName: __ZN14powersync_core5error14PowerSyncError17sqlite_error_code17h643b94d19f8ec7c8E, symObjAddr: 0x1C666, symBinAddr: 0x1C432, symSize: 0x7E }
  - { offsetInCU: 0xC3C4, offset: 0xBD689, size: 0x8, addend: 0x0, symName: __ZN14powersync_core5error14PowerSyncError8internal17h0f2110606665834bE, symObjAddr: 0x1C7E5, symBinAddr: 0x1C5B1, symSize: 0x30 }
  - { offsetInCU: 0xC531, offset: 0xBD7F6, size: 0x8, addend: 0x0, symName: __ZN14powersync_core5error14PowerSyncError6errstr17hf29336e3c6cc2d5eE, symObjAddr: 0x1C8E7, symBinAddr: 0x1C6B3, symSize: 0xB4 }
  - { offsetInCU: 0xC776, offset: 0xBDA3B, size: 0x8, addend: 0x0, symName: __ZN14powersync_core5error14PowerSyncError14argument_error17h1349d74d5444796eE, symObjAddr: 0x1C99B, symBinAddr: 0x1C767, symSize: 0x3E }
  - { offsetInCU: 0xC7BF, offset: 0xBDA84, size: 0x8, addend: 0x0, symName: __ZN14powersync_core5error14PowerSyncError11state_error17h73f533e553e67d5bE, symObjAddr: 0x1C9D9, symBinAddr: 0x1C7A5, symSize: 0x2F }
  - { offsetInCU: 0xC7FF, offset: 0xBDAC4, size: 0x8, addend: 0x0, symName: __ZN14powersync_core5error14PowerSyncError19sync_protocol_error17h4484c6bb2942b100E, symObjAddr: 0x1CA08, symBinAddr: 0x1C7D4, symSize: 0x37 }
  - { offsetInCU: 0xC872, offset: 0xBDB37, size: 0x8, addend: 0x0, symName: __ZN14powersync_core5error14PowerSyncError16unknown_internal17h2d9035f3d00fd622E, symObjAddr: 0x1CA3F, symBinAddr: 0x1C80B, symSize: 0x2C }
  - { offsetInCU: 0xCA58, offset: 0xBDD1D, size: 0x8, addend: 0x0, symName: __ZN14powersync_core4sync15storage_adapter14StorageAdapter3new17hd703c0dd0226a337E, symObjAddr: 0x1CFD8, symBinAddr: 0x1CDA4, symSize: 0xB3 }
  - { offsetInCU: 0xCB8B, offset: 0xBDE50, size: 0x8, addend: 0x0, symName: __ZN12sqlite_nostd5nostd11ManagedStmt11column_text17hd87220a4dd46d760E, symObjAddr: 0x1D0F1, symBinAddr: 0x1CEBD, symSize: 0x49 }
  - { offsetInCU: 0xCC44, offset: 0xBDF09, size: 0x8, addend: 0x0, symName: __ZN12sqlite_nostd5nostd11ManagedStmt9bind_text17hba530f0d23cc6cecE, symObjAddr: 0x1D13A, symBinAddr: 0x1CF06, symSize: 0x11 }
  - { offsetInCU: 0xD0C4, offset: 0xBE389, size: 0x8, addend: 0x0, symName: __ZN14powersync_core4sync15storage_adapter14StorageAdapter10sync_local17hc632a2fc1e4b7318E, symObjAddr: 0x1D14B, symBinAddr: 0x1CF17, symSize: 0xAAA }
  - { offsetInCU: 0xE818, offset: 0xBFADD, size: 0x8, addend: 0x0, symName: __ZN12sqlite_nostd5nostd11ManagedStmt10bind_int6417h0d67155fab54480dE, symObjAddr: 0x1DBF5, symBinAddr: 0x1D9C1, symSize: 0x17 }
  - { offsetInCU: 0xE88F, offset: 0xBFB54, size: 0x8, addend: 0x0, symName: __ZN14powersync_core4sync15storage_adapter14StorageAdapter3now17ha2e72280655eb058E, symObjAddr: 0x1DC2A, symBinAddr: 0x1D9F6, symSize: 0x53 }
  - { offsetInCU: 0x1E, offset: 0xC0504, size: 0x8, addend: 0x0, symName: '__ZN108_$LT$alloc..collections..btree..map..Iter$LT$K$C$V$GT$$u20$as$u20$core..iter..traits..iterator..Iterator$GT$4next17h8cd7521a9419c8ccE', symObjAddr: 0x1DE59, symBinAddr: 0x1DC25, symSize: 0xE7 }
  - { offsetInCU: 0x50C9, offset: 0xC55AF, size: 0x8, addend: 0x0, symName: '__ZN4core3cmp5impls69_$LT$impl$u20$core..cmp..PartialEq$LT$$RF$B$GT$$u20$for$u20$$RF$A$GT$2eq17h7a123b9d7fd4c981E', symObjAddr: 0x1E160, symBinAddr: 0x1DF2C, symSize: 0xA }
  - { offsetInCU: 0x519C, offset: 0xC5682, size: 0x8, addend: 0x0, symName: __ZN4core3cmp9PartialEq2ne17h8636e495d71c1cffE, symObjAddr: 0x1DF52, symBinAddr: 0x1DD1E, symSize: 0xD }
  - { offsetInCU: 0x6902, offset: 0xC6DE8, size: 0x8, addend: 0x0, symName: '__ZN92_$LT$powersync_core..sync..checkpoint..OwnedBucketChecksum$u20$as$u20$core..clone..Clone$GT$5clone17h3698d53283d9e907E', symObjAddr: 0x1F22B, symBinAddr: 0x1EFF7, symSize: 0x39 }
  - { offsetInCU: 0x7C33, offset: 0xC8119, size: 0x8, addend: 0x0, symName: '__ZN108_$LT$alloc..collections..btree..map..Iter$LT$K$C$V$GT$$u20$as$u20$core..iter..traits..iterator..Iterator$GT$4next17h8cd7521a9419c8ccE', symObjAddr: 0x1DE59, symBinAddr: 0x1DC25, symSize: 0xE7 }
  - { offsetInCU: 0x82AA, offset: 0xC8790, size: 0x8, addend: 0x0, symName: '__ZN110_$LT$alloc..collections..btree..map..Values$LT$K$C$V$GT$$u20$as$u20$core..iter..traits..iterator..Iterator$GT$4next17h5d0d6295080857afE', symObjAddr: 0x1DF40, symBinAddr: 0x1DD0C, symSize: 0x12 }
  - { offsetInCU: 0x8EA6, offset: 0xC938C, size: 0x8, addend: 0x0, symName: '__ZN96_$LT$alloc..collections..btree..map..BTreeMap$LT$K$C$V$C$A$GT$$u20$as$u20$core..clone..Clone$GT$5clone13clone_subtree17hed879fa5c04b2120E', symObjAddr: 0x1F061, symBinAddr: 0x1EE2D, symSize: 0x1CA }
  - { offsetInCU: 0x9849, offset: 0xC9D2F, size: 0x8, addend: 0x0, symName: '__ZN99_$LT$alloc..collections..btree..map..BTreeMap$LT$K$C$V$C$A$GT$$u20$as$u20$core..ops..drop..Drop$GT$4drop17h082cfa96ac396940E', symObjAddr: 0x1F264, symBinAddr: 0x1F030, symSize: 0x1C6 }
  - { offsetInCU: 0xA077, offset: 0xCA55D, size: 0x8, addend: 0x0, symName: '__ZN99_$LT$alloc..collections..btree..map..BTreeMap$LT$K$C$V$C$A$GT$$u20$as$u20$core..ops..drop..Drop$GT$4drop17h2e97d77dc20967deE', symObjAddr: 0x1F42A, symBinAddr: 0x1F1F6, symSize: 0x1A1 }
  - { offsetInCU: 0xA78C, offset: 0xCAC72, size: 0x8, addend: 0x0, symName: '__ZN99_$LT$alloc..collections..btree..map..BTreeMap$LT$K$C$V$C$A$GT$$u20$as$u20$core..ops..drop..Drop$GT$4drop17h7f527a177a1596bbE', symObjAddr: 0x1F5CB, symBinAddr: 0x1F397, symSize: 0x19B }
  - { offsetInCU: 0xAECF, offset: 0xCB3B5, size: 0x8, addend: 0x0, symName: '__ZN99_$LT$alloc..collections..btree..map..BTreeMap$LT$K$C$V$C$A$GT$$u20$as$u20$core..ops..drop..Drop$GT$4drop17ha893c154a3ac8875E', symObjAddr: 0x1F766, symBinAddr: 0x1F532, symSize: 0x1DE }
  - { offsetInCU: 0xE37D, offset: 0xCE863, size: 0x8, addend: 0x0, symName: '__ZN65_$LT$serde_json..value..Value$u20$as$u20$core..cmp..PartialEq$GT$2eq17hb9d2014c828b33e6E', symObjAddr: 0x1DF5F, symBinAddr: 0x1DD2B, symSize: 0x201 }
  - { offsetInCU: 0xF7B8, offset: 0xCFC9E, size: 0x8, addend: 0x0, symName: '__ZN5alloc11collections5btree3map25BTreeMap$LT$K$C$V$C$A$GT$16extract_if_inner17h6a2c67cff0b9e30cE', symObjAddr: 0x1E16A, symBinAddr: 0x1DF36, symSize: 0x4C }
  - { offsetInCU: 0xF7DB, offset: 0xCFCC1, size: 0x8, addend: 0x0, symName: '__ZN5alloc11collections5btree3map25BTreeMap$LT$K$C$V$C$A$GT$16extract_if_inner17h6a2c67cff0b9e30cE', symObjAddr: 0x1E16A, symBinAddr: 0x1DF36, symSize: 0x4C }
  - { offsetInCU: 0xF7F9, offset: 0xCFCDF, size: 0x8, addend: 0x0, symName: '__ZN5alloc11collections5btree3map25BTreeMap$LT$K$C$V$C$A$GT$16extract_if_inner17h6a2c67cff0b9e30cE', symObjAddr: 0x1E16A, symBinAddr: 0x1DF36, symSize: 0x4C }
  - { offsetInCU: 0xFC67, offset: 0xD014D, size: 0x8, addend: 0x0, symName: '__ZN5alloc11collections5btree3map25BTreeMap$LT$K$C$V$C$A$GT$6insert17h8d531a827fe4a7e8E', symObjAddr: 0x1E1B6, symBinAddr: 0x1DF82, symSize: 0x6CE }
  - { offsetInCU: 0x1110F, offset: 0xD15F5, size: 0x8, addend: 0x0, symName: '__ZN5alloc11collections5btree3map25BTreeMap$LT$K$C$V$C$A$GT$6insert17hc0136dd2e67c37caE', symObjAddr: 0x1E884, symBinAddr: 0x1E650, symSize: 0x72C }
  - { offsetInCU: 0x12837, offset: 0xD2D1D, size: 0x8, addend: 0x0, symName: '__ZN5alloc11collections5btree3map25BTreeMap$LT$K$C$V$C$A$GT$7get_mut17hc1607fb6ca0c20e9E', symObjAddr: 0x1EFB0, symBinAddr: 0x1ED7C, symSize: 0xB1 }
  - { offsetInCU: 0x1286A, offset: 0xD2D50, size: 0x8, addend: 0x0, symName: '__ZN5alloc11collections5btree3map25BTreeMap$LT$K$C$V$C$A$GT$7get_mut17hc1607fb6ca0c20e9E', symObjAddr: 0x1EFB0, symBinAddr: 0x1ED7C, symSize: 0xB1 }
  - { offsetInCU: 0x135CE, offset: 0xD3AB4, size: 0x8, addend: 0x0, symName: __ZN14powersync_core4bson6parser6Parser5error17h82f3a9b6be8bf14aE, symObjAddr: 0x1F944, symBinAddr: 0x42F24, symSize: 0x1A }
  - { offsetInCU: 0x1376B, offset: 0xD3C51, size: 0x8, addend: 0x0, symName: __ZN14powersync_core4bson6parser6Parser10read_int3217hc00a0bfc02737edfE, symObjAddr: 0x1F95E, symBinAddr: 0x1F712, symSize: 0x52 }
  - { offsetInCU: 0x13938, offset: 0xD3E1E, size: 0x8, addend: 0x0, symName: __ZN14powersync_core4bson6parser6Parser15advance_checked17h1026ae2a78939a5fE, symObjAddr: 0x1F9B0, symBinAddr: 0x1F764, symSize: 0x59 }
  - { offsetInCU: 0x13A9A, offset: 0xD3F80, size: 0x8, addend: 0x0, symName: __ZN14powersync_core4bson6parser6Parser10read_int6417h353a218c672c626dE, symObjAddr: 0x1FA09, symBinAddr: 0x1F7BD, symSize: 0x19 }
  - { offsetInCU: 0x13B6C, offset: 0xD4052, size: 0x8, addend: 0x0, symName: __ZN14powersync_core4bson6parser6Parser13advance_bytes17h33ff648ac74bd19cE, symObjAddr: 0x1FA22, symBinAddr: 0x1F7D6, symSize: 0x46 }
  - { offsetInCU: 0x13C79, offset: 0xD415F, size: 0x8, addend: 0x0, symName: __ZN14powersync_core4bson6parser6Parser11read_double17h787fc2a135356e46E, symObjAddr: 0x1FA68, symBinAddr: 0x1F81C, symSize: 0x33 }
  - { offsetInCU: 0x13D31, offset: 0xD4217, size: 0x8, addend: 0x0, symName: __ZN14powersync_core4bson6parser6Parser9read_bool17hc4c0d050ebaf04c1E, symObjAddr: 0x1FA9B, symBinAddr: 0x1F84F, symSize: 0x41 }
  - { offsetInCU: 0x13E4D, offset: 0xD4333, size: 0x8, addend: 0x0, symName: __ZN14powersync_core4bson6parser6Parser12advance_byte17h69387c1499b2a013E, symObjAddr: 0x1FADC, symBinAddr: 0x1F890, symSize: 0x5B }
  - { offsetInCU: 0x13F73, offset: 0xD4459, size: 0x8, addend: 0x0, symName: __ZN14powersync_core4bson6parser6Parser14read_object_id17h313d7dcb8235e739E, symObjAddr: 0x1FB37, symBinAddr: 0x1F8EB, symSize: 0x14 }
  - { offsetInCU: 0x13FF5, offset: 0xD44DB, size: 0x8, addend: 0x0, symName: __ZN14powersync_core4bson6parser6Parser11read_string17h88804266b3f9d064E, symObjAddr: 0x1FB4B, symBinAddr: 0x1F8FF, symSize: 0xCA }
  - { offsetInCU: 0x14231, offset: 0xD4717, size: 0x8, addend: 0x0, symName: __ZN14powersync_core4bson6parser6Parser11read_length17h301a3cafa688a430E, symObjAddr: 0x1FC15, symBinAddr: 0x1F9C9, symSize: 0x5F }
  - { offsetInCU: 0x142C4, offset: 0xD47AA, size: 0x8, addend: 0x0, symName: __ZN14powersync_core4bson6parser6Parser11read_binary17h6d354ba0122a1f5dE, symObjAddr: 0x1FC74, symBinAddr: 0x1FA28, symSize: 0x8C }
  - { offsetInCU: 0x143EB, offset: 0xD48D1, size: 0x8, addend: 0x0, symName: __ZN14powersync_core4bson6parser6Parser9subreader17hc23dcba780b7ff7bE, symObjAddr: 0x1FD00, symBinAddr: 0x1FAB4, symSize: 0x42 }
  - { offsetInCU: 0x14518, offset: 0xD49FE, size: 0x8, addend: 0x0, symName: __ZN14powersync_core4bson6parser6Parser13skip_document17ha7647eb66600ee56E, symObjAddr: 0x1FD42, symBinAddr: 0x1FAF6, symSize: 0x8C }
  - { offsetInCU: 0x1E, offset: 0xD5B32, size: 0x8, addend: 0x0, symName: '__ZN102_$LT$core..iter..adapters..map..Map$LT$I$C$F$GT$$u20$as$u20$core..iter..traits..iterator..Iterator$GT$4next17h40a3fdaffe771b7bE', symObjAddr: 0x1FDCE, symBinAddr: 0x1FB82, symSize: 0x40 }
  - { offsetInCU: 0x27A, offset: 0xD5D8E, size: 0x8, addend: 0x0, symName: '__ZN58_$LT$alloc..string..String$u20$as$u20$core..fmt..Write$GT$10write_char17h99abeeb8cff35533E.1130', symObjAddr: 0x205B5, symBinAddr: 0x20179, symSize: 0x101 }
  - { offsetInCU: 0xB09, offset: 0xD661D, size: 0x8, addend: 0x0, symName: '__ZN66_$LT$alloc..borrow..Cow$LT$B$GT$$u20$as$u20$core..fmt..Display$GT$3fmt17h35528858fd2ae8eeE', symObjAddr: 0x1FE4B, symBinAddr: 0x1FBFF, symSize: 0x1B }
  - { offsetInCU: 0xCB7, offset: 0xD67CB, size: 0x8, addend: 0x0, symName: '__ZN5alloc3str21_$LT$impl$u20$str$GT$7replace17h3885da8bbc8d5f58E', symObjAddr: 0x21015, symBinAddr: 0x20BB1, symSize: 0x27F }
  - { offsetInCU: 0x13A0, offset: 0xD6EB4, size: 0x8, addend: 0x0, symName: '__ZN5alloc5slice29_$LT$impl$u20$$u5b$T$u5d$$GT$4join17ha23549ef84c2f1e9E', symObjAddr: 0x1FE73, symBinAddr: 0x1FC27, symSize: 0x14E }
  - { offsetInCU: 0x1CF0, offset: 0xD7804, size: 0x8, addend: 0x0, symName: __ZN5alloc3fmt6format17h2ba7b1746508e211E.1140, symObjAddr: 0x20FD0, symBinAddr: 0x20B6C, symSize: 0x45 }
  - { offsetInCU: 0x21DD, offset: 0xD7CF1, size: 0x8, addend: 0x0, symName: '__ZN4core3ptr50drop_in_place$LT$alloc..borrow..Cow$LT$str$GT$$GT$17h20a0e2dae19c5320E.1124', symObjAddr: 0x20552, symBinAddr: 0x20116, symSize: 0x13 }
  - { offsetInCU: 0x2288, offset: 0xD7D9C, size: 0x8, addend: 0x0, symName: '__ZN4core3ptr63drop_in_place$LT$powersync_core..error..PowerSyncErrorCause$GT$17hb99a015a023fe0bdE.1125', symObjAddr: 0x20565, symBinAddr: 0x20129, symSize: 0x50 }
  - { offsetInCU: 0x2C5C, offset: 0xD8770, size: 0x8, addend: 0x0, symName: '__ZN44_$LT$$RF$T$u20$as$u20$core..fmt..Display$GT$3fmt17h0c6c2bbd5ce77f2aE', symObjAddr: 0x1FE31, symBinAddr: 0x1FBE5, symSize: 0xD }
  - { offsetInCU: 0x2CA2, offset: 0xD87B6, size: 0x8, addend: 0x0, symName: '__ZN44_$LT$$RF$T$u20$as$u20$core..fmt..Display$GT$3fmt17hd924353d8359c08bE', symObjAddr: 0x1FE3E, symBinAddr: 0x1FBF2, symSize: 0xD }
  - { offsetInCU: 0x2CE8, offset: 0xD87FC, size: 0x8, addend: 0x0, symName: '__ZN44_$LT$$RF$T$u20$as$u20$core..fmt..Display$GT$3fmt17hf079feddd10cefbfE', symObjAddr: 0x1FE66, symBinAddr: 0x1FC1A, symSize: 0xD }
  - { offsetInCU: 0x49D3, offset: 0xDA4E7, size: 0x8, addend: 0x0, symName: '__ZN4core3str21_$LT$impl$u20$str$GT$5parse17h5806540499788258E', symObjAddr: 0x21BB9, symBinAddr: 0x21755, symSize: 0x12D }
  - { offsetInCU: 0x4EE3, offset: 0xDA9F7, size: 0x8, addend: 0x0, symName: '__ZN4core3str6traits66_$LT$impl$u20$core..ops..index..Index$LT$I$GT$$u20$for$u20$str$GT$5index17hce951d1b9151d3d6E', symObjAddr: 0x20719, symBinAddr: 0x202B5, symSize: 0x27 }
  - { offsetInCU: 0x4FC2, offset: 0xDAAD6, size: 0x8, addend: 0x0, symName: '__ZN4core3str6traits66_$LT$impl$u20$core..ops..index..Index$LT$I$GT$$u20$for$u20$str$GT$5index17h495dcad2b4f9fc27E', symObjAddr: 0x21294, symBinAddr: 0x20E30, symSize: 0x2B }
  - { offsetInCU: 0x5001, offset: 0xDAB15, size: 0x8, addend: 0x0, symName: '__ZN4core3str6traits66_$LT$impl$u20$core..ops..index..Index$LT$I$GT$$u20$for$u20$str$GT$5index17h495dcad2b4f9fc27E', symObjAddr: 0x21294, symBinAddr: 0x20E30, symSize: 0x2B }
  - { offsetInCU: 0x5021, offset: 0xDAB35, size: 0x8, addend: 0x0, symName: '__ZN4core3str6traits66_$LT$impl$u20$core..ops..index..Index$LT$I$GT$$u20$for$u20$str$GT$5index17h495dcad2b4f9fc27E', symObjAddr: 0x21294, symBinAddr: 0x20E30, symSize: 0x2B }
  - { offsetInCU: 0x5061, offset: 0xDAB75, size: 0x8, addend: 0x0, symName: '__ZN4core3str6traits66_$LT$impl$u20$core..ops..index..Index$LT$I$GT$$u20$for$u20$str$GT$5index17h495dcad2b4f9fc27E', symObjAddr: 0x21294, symBinAddr: 0x20E30, symSize: 0x2B }
  - { offsetInCU: 0x584C, offset: 0xDB360, size: 0x8, addend: 0x0, symName: '__ZN102_$LT$core..str..iter..CharIndices$u20$as$u20$core..iter..traits..double_ended..DoubleEndedIterator$GT$9next_back17h562792a489da2862E', symObjAddr: 0x21718, symBinAddr: 0x212B4, symSize: 0x9A }
  - { offsetInCU: 0x58A4, offset: 0xDB3B8, size: 0x8, addend: 0x0, symName: '__ZN102_$LT$core..str..iter..CharIndices$u20$as$u20$core..iter..traits..double_ended..DoubleEndedIterator$GT$9next_back17h562792a489da2862E', symObjAddr: 0x21718, symBinAddr: 0x212B4, symSize: 0x9A }
  - { offsetInCU: 0x621A, offset: 0xDBD2E, size: 0x8, addend: 0x0, symName: '__ZN102_$LT$core..iter..adapters..map..Map$LT$I$C$F$GT$$u20$as$u20$core..iter..traits..iterator..Iterator$GT$4next17h40a3fdaffe771b7bE', symObjAddr: 0x1FDCE, symBinAddr: 0x1FB82, symSize: 0x40 }
  - { offsetInCU: 0x67F6, offset: 0xDC30A, size: 0x8, addend: 0x0, symName: __ZN4core5slice6memchr6memchr17h9e43173a59a6a940E.1134, symObjAddr: 0x206E0, symBinAddr: 0x2027C, symSize: 0x39 }
  - { offsetInCU: 0x6C9B, offset: 0xDC7AF, size: 0x8, addend: 0x0, symName: '__ZN100_$LT$powersync_core..util..deserialize_string_to_i64..ValueVisitor$u20$as$u20$serde..de..Visitor$GT$9visit_str17h788ca256987d56eaE', symObjAddr: 0x21B1F, symBinAddr: 0x216BB, symSize: 0x9A }
  - { offsetInCU: 0x6E27, offset: 0xDC93B, size: 0x8, addend: 0x0, symName: __ZN14powersync_core4util16quote_identifier17he62e104d2c1c308cE, symObjAddr: 0x20F64, symBinAddr: 0x20B00, symSize: 0x6C }
  - { offsetInCU: 0x6E88, offset: 0xDC99C, size: 0x8, addend: 0x0, symName: __ZN14powersync_core4util12quote_string17h12f7551a456595c1E, symObjAddr: 0x217B2, symBinAddr: 0x2134E, symSize: 0x75 }
  - { offsetInCU: 0x6F52, offset: 0xDCA66, size: 0x8, addend: 0x0, symName: '__ZN73_$LT$powersync_core..util..QuotedString$u20$as$u20$core..fmt..Display$GT$3fmt17h3bfff49eb7eebeadE', symObjAddr: 0x21827, symBinAddr: 0x213C3, symSize: 0x1AD }
  - { offsetInCU: 0x728B, offset: 0xDCD9F, size: 0x8, addend: 0x0, symName: __ZN14powersync_core4util15quote_json_path17h00d6e6d4b3b852a4E, symObjAddr: 0x219D4, symBinAddr: 0x21570, symSize: 0x7A }
  - { offsetInCU: 0x73B5, offset: 0xDCEC9, size: 0x8, addend: 0x0, symName: __ZN14powersync_core4util19quote_internal_name17h55f35bd8ffb7d40eE, symObjAddr: 0x21A4E, symBinAddr: 0x215EA, symSize: 0x3E }
  - { offsetInCU: 0x73F1, offset: 0xDCF05, size: 0x8, addend: 0x0, symName: __ZN14powersync_core4util25quote_identifier_prefixed17h3996bc095c4a21dbE, symObjAddr: 0x21A8C, symBinAddr: 0x21628, symSize: 0x93 }
  - { offsetInCU: 0x7501, offset: 0xDD015, size: 0x8, addend: 0x0, symName: __ZN14powersync_core4util34deserialize_optional_string_to_i6417ha8cd892ce20c714dE, symObjAddr: 0x21CE6, symBinAddr: 0x21882, symSize: 0x59 }
  - { offsetInCU: 0x760A, offset: 0xDD11E, size: 0x8, addend: 0x0, symName: __ZN14powersync_core4util34deserialize_optional_string_to_i6417hbcb752dcb8fdf635E, symObjAddr: 0x21D3F, symBinAddr: 0x218DB, symSize: 0x7C }
  - { offsetInCU: 0x7BF7, offset: 0xDD70B, size: 0x8, addend: 0x0, symName: __ZN14powersync_core8fix_data39powersync_remove_duplicate_key_encoding17h1e61e3632cd1d8ebE, symObjAddr: 0x21450, symBinAddr: 0x20FEC, symSize: 0x2C8 }
  - { offsetInCU: 0x868D, offset: 0xDE1A1, size: 0x8, addend: 0x0, symName: '__ZN95_$LT$$BP$mut$u20$sqlite3_capi..bindings..sqlite3$u20$as$u20$sqlite_nostd..nostd..Connection$GT$10prepare_v217hdce128889f6400baE.1136', symObjAddr: 0x20740, symBinAddr: 0x202DC, symSize: 0x7D8 }
  - { offsetInCU: 0x8B7B, offset: 0xDE68F, size: 0x8, addend: 0x0, symName: '__ZN62_$LT$serde_json..error..Error$u20$as$u20$serde..ser..Error$GT$6custom17h8d68f7d0c8e2f47aE', symObjAddr: 0x206B6, symBinAddr: 0x43136, symSize: 0x2A }
  - { offsetInCU: 0x9408, offset: 0xDEF1C, size: 0x8, addend: 0x0, symName: __ZN5serde2de7Visitor11visit_bytes17hce6039105e4eda99E, symObjAddr: 0x204D9, symBinAddr: 0x430CD, symSize: 0x36 }
  - { offsetInCU: 0x9459, offset: 0xDEF6D, size: 0x8, addend: 0x0, symName: __ZN5serde2de7Visitor9visit_i6417hce93ecf6df62d5c0E, symObjAddr: 0x2050F, symBinAddr: 0x43103, symSize: 0x32 }
  - { offsetInCU: 0x94DC, offset: 0xDEFF0, size: 0x8, addend: 0x0, symName: '__ZN5serde2de5impls74_$LT$impl$u20$serde..de..Deserialize$u20$for$u20$alloc..string..String$GT$11deserialize17h3e546747e0f1a55bE', symObjAddr: 0x2014A, symBinAddr: 0x1FD76, symSize: 0x28E }
  - { offsetInCU: 0x9870, offset: 0xDF384, size: 0x8, addend: 0x0, symName: '__ZN5serde2de5impls74_$LT$impl$u20$serde..de..Deserialize$u20$for$u20$alloc..string..String$GT$11deserialize17hda42818441783629E', symObjAddr: 0x203D8, symBinAddr: 0x20004, symSize: 0x101 }
  - { offsetInCU: 0x9A56, offset: 0xDF56A, size: 0x8, addend: 0x0, symName: '__ZN41_$LT$T$u20$as$u20$serde..de..Expected$GT$3fmt17h8e55b69b1d1ce97cE', symObjAddr: 0x1FE0E, symBinAddr: 0x1FBC2, symSize: 0x23 }
  - { offsetInCU: 0x9AD4, offset: 0xDF5E8, size: 0x8, addend: 0x0, symName: __ZN5serde2de5Error13missing_field17hdb46464ebf26f3b0E, symObjAddr: 0x1FFC1, symBinAddr: 0x42F41, symSize: 0x57 }
  - { offsetInCU: 0x9B2C, offset: 0xDF640, size: 0x8, addend: 0x0, symName: __ZN5serde2de5Error14invalid_length17h10458021c49c4b1bE, symObjAddr: 0x20018, symBinAddr: 0x42F98, symSize: 0x6F }
  - { offsetInCU: 0x9B8E, offset: 0xDF6A2, size: 0x8, addend: 0x0, symName: __ZN5serde2de5Error15duplicate_field17hab77ac9c8199baf6E, symObjAddr: 0x20087, symBinAddr: 0x43007, symSize: 0x57 }
  - { offsetInCU: 0x9BE5, offset: 0xDF6F9, size: 0x8, addend: 0x0, symName: __ZN5serde2de5Error15unknown_variant17h0dc0101751943f2fE, symObjAddr: 0x200DE, symBinAddr: 0x4305E, symSize: 0x6C }
  - { offsetInCU: 0xA00F, offset: 0xDFB23, size: 0x8, addend: 0x0, symName: '__ZN4core6result19Result$LT$T$C$E$GT$6expect17h9a54e1e62761bf6aE.1121', symObjAddr: 0x20541, symBinAddr: 0x20105, symSize: 0x11 }
  - { offsetInCU: 0xA3F1, offset: 0xDFF05, size: 0x8, addend: 0x0, symName: __ZN12sqlite_nostd5nostd11ManagedStmt11column_text17hd87220a4dd46d760E.1137, symObjAddr: 0x20F18, symBinAddr: 0x20AB4, symSize: 0x4C }
  - { offsetInCU: 0xA7EF, offset: 0xE0303, size: 0x8, addend: 0x0, symName: __ZN4core3str7pattern14TwoWaySearcher4next17h05917cc36bf99f85E, symObjAddr: 0x212BF, symBinAddr: 0x20E5B, symSize: 0x191 }
  - { offsetInCU: 0x1E, offset: 0xE0F2D, size: 0x8, addend: 0x0, symName: '__ZN41_$LT$T$u20$as$u20$serde..de..Expected$GT$3fmt17h382bc88cca1b1dd4E', symObjAddr: 0x21DBB, symBinAddr: 0x21957, symSize: 0x23 }
  - { offsetInCU: 0x1E2, offset: 0xE10F1, size: 0x8, addend: 0x0, symName: '__ZN95_$LT$$BP$mut$u20$sqlite3_capi..bindings..sqlite3$u20$as$u20$sqlite_nostd..nostd..Connection$GT$9exec_safe17h1a95d9dea7ce52ddE', symObjAddr: 0x23D79, symBinAddr: 0x2383D, symSize: 0x79 }
  - { offsetInCU: 0x585, offset: 0xE1494, size: 0x8, addend: 0x0, symName: __ZN14powersync_core4sync10operations24insert_bucket_operations17h9019d13d4046f95bE, symObjAddr: 0x21FD8, symBinAddr: 0x21A9C, symSize: 0x927 }
  - { offsetInCU: 0x177B, offset: 0xE268A, size: 0x8, addend: 0x0, symName: __ZN14powersync_core10operations13delete_bucket17h901c11d131d60b47E, symObjAddr: 0x2299A, symBinAddr: 0x2245E, symSize: 0x17D }
  - { offsetInCU: 0x2408, offset: 0xE3317, size: 0x8, addend: 0x0, symName: '__ZN124_$LT$core..result..Result$LT$T$C$sqlite_nostd..nostd..ResultCode$GT$$u20$as$u20$powersync_core..error..PSResult$LT$T$GT$$GT$14into_db_result17h4af4ca357d2a1284E', symObjAddr: 0x21EDC, symBinAddr: 0x219A0, symSize: 0x62 }
  - { offsetInCU: 0x24D5, offset: 0xE33E4, size: 0x8, addend: 0x0, symName: '__ZN124_$LT$core..result..Result$LT$T$C$sqlite_nostd..nostd..ResultCode$GT$$u20$as$u20$powersync_core..error..PSResult$LT$T$GT$$GT$14into_db_result17h6f7fe559d057f078E', symObjAddr: 0x21F3E, symBinAddr: 0x21A02, symSize: 0x52 }
  - { offsetInCU: 0x2585, offset: 0xE3494, size: 0x8, addend: 0x0, symName: '__ZN124_$LT$core..result..Result$LT$T$C$sqlite_nostd..nostd..ResultCode$GT$$u20$as$u20$powersync_core..error..PSResult$LT$T$GT$$GT$14into_db_result17he6e18f1edd0cfb83E', symObjAddr: 0x21F90, symBinAddr: 0x21A54, symSize: 0x48 }
  - { offsetInCU: 0x2685, offset: 0xE3594, size: 0x8, addend: 0x0, symName: __ZN14powersync_core7version20powersync_rs_version17h1f5a6fd66ed3c117E, symObjAddr: 0x24038, symBinAddr: 0x23AFC, symSize: 0xD1 }
  - { offsetInCU: 0x2CD2, offset: 0xE3BE1, size: 0x8, addend: 0x0, symName: '__ZN4core3ptr74drop_in_place$LT$powersync_core..sync..storage_adapter..StorageAdapter$GT$17h072339607dbba8cfE', symObjAddr: 0x228FF, symBinAddr: 0x223C3, symSize: 0x1C }
  - { offsetInCU: 0x2D66, offset: 0xE3C75, size: 0x8, addend: 0x0, symName: '__ZN4core3ptr78drop_in_place$LT$powersync_core..operations..insert_operation..BucketBatch$GT$17h908ba191f7e988b0E', symObjAddr: 0x2291B, symBinAddr: 0x223DF, symSize: 0x29 }
  - { offsetInCU: 0x2EE6, offset: 0xE3DF5, size: 0x8, addend: 0x0, symName: '__ZN4core3ptr94drop_in_place$LT$core..option..Option$LT$powersync_core..sync_local..ParsedSchemaTable$GT$$GT$17h6fa885e55bbf6f98E', symObjAddr: 0x23D3C, symBinAddr: 0x23800, symSize: 0x3D }
  - { offsetInCU: 0x2FA7, offset: 0xE3EB6, size: 0x8, addend: 0x0, symName: '__ZN4core3ptr81drop_in_place$LT$core..option..Option$LT$sqlite_nostd..nostd..ManagedStmt$GT$$GT$17hb23c0a52717555fcE', symObjAddr: 0x23DF2, symBinAddr: 0x238B6, symSize: 0x14 }
  - { offsetInCU: 0x3007, offset: 0xE3F16, size: 0x8, addend: 0x0, symName: '__ZN4core3ptr114drop_in_place$LT$core..option..Option$LT$powersync_core..sync_local..SyncOperation..apply..CachedStatement$GT$$GT$17hc3fef6e7f0f5f6eaE', symObjAddr: 0x23E06, symBinAddr: 0x238CA, symSize: 0x33 }
  - { offsetInCU: 0x30DC, offset: 0xE3FEB, size: 0x8, addend: 0x0, symName: '__ZN4core3ptr101drop_in_place$LT$core..option..Option$LT$powersync_core..sync_local..PreparedPendingStatement$GT$$GT$17h23d1379691d83c4eE', symObjAddr: 0x23F9B, symBinAddr: 0x23A5F, symSize: 0x14 }
  - { offsetInCU: 0x822F, offset: 0xE913E, size: 0x8, addend: 0x0, symName: __ZN5serde9__private2de13missing_field17h6b7b159b9f450be6E, symObjAddr: 0x21E01, symBinAddr: 0x43161, symSize: 0x30 }
  - { offsetInCU: 0x833D, offset: 0xE924C, size: 0x8, addend: 0x0, symName: __ZN5serde9__private2de13missing_field17h83f1dd8761e45049E, symObjAddr: 0x21E31, symBinAddr: 0x43191, symSize: 0x30 }
  - { offsetInCU: 0x844B, offset: 0xE935A, size: 0x8, addend: 0x0, symName: __ZN5serde9__private2de13missing_field17h88acd34cafd5fe78E, symObjAddr: 0x21E61, symBinAddr: 0x431C1, symSize: 0x29 }
  - { offsetInCU: 0x8503, offset: 0xE9412, size: 0x8, addend: 0x0, symName: __ZN5serde9__private2de13missing_field17hc38a5f99410673a0E, symObjAddr: 0x21E8A, symBinAddr: 0x431EA, symSize: 0x29 }
  - { offsetInCU: 0x85BB, offset: 0xE94CA, size: 0x8, addend: 0x0, symName: __ZN5serde9__private2de13missing_field17he719eeb6fb369bebE, symObjAddr: 0x21EB3, symBinAddr: 0x43213, symSize: 0x29 }
  - { offsetInCU: 0x8A7B, offset: 0xE998A, size: 0x8, addend: 0x0, symName: '__ZN41_$LT$T$u20$as$u20$serde..de..Expected$GT$3fmt17h382bc88cca1b1dd4E', symObjAddr: 0x21DBB, symBinAddr: 0x21957, symSize: 0x23 }
  - { offsetInCU: 0x8AF3, offset: 0xE9A02, size: 0x8, addend: 0x0, symName: '__ZN41_$LT$T$u20$as$u20$serde..de..Expected$GT$3fmt17h842f080435d96302E', symObjAddr: 0x21DDE, symBinAddr: 0x2197A, symSize: 0x23 }
  - { offsetInCU: 0xA689, offset: 0xEB598, size: 0x8, addend: 0x0, symName: __ZN12sqlite_nostd5nostd11ManagedStmt10bind_int6417h0d67155fab54480dE.1252, symObjAddr: 0x22944, symBinAddr: 0x22408, symSize: 0x11 }
  - { offsetInCU: 0xA6C9, offset: 0xEB5D8, size: 0x8, addend: 0x0, symName: __ZN12sqlite_nostd5nostd11ManagedStmt8bind_int17hdf7e493e5a77bd96E, symObjAddr: 0x22955, symBinAddr: 0x22419, symSize: 0x11 }
  - { offsetInCU: 0xA709, offset: 0xEB618, size: 0x8, addend: 0x0, symName: __ZN12sqlite_nostd5nostd11ManagedStmt9bind_text17hba530f0d23cc6cecE.1254, symObjAddr: 0x22966, symBinAddr: 0x2242A, symSize: 0x11 }
  - { offsetInCU: 0xA759, offset: 0xEB668, size: 0x8, addend: 0x0, symName: __ZN12sqlite_nostd5nostd11ManagedStmt9bind_null17h7cd81ed140230f01E, symObjAddr: 0x22977, symBinAddr: 0x2243B, symSize: 0x23 }
  - { offsetInCU: 0xA7ED, offset: 0xEB6FC, size: 0x8, addend: 0x0, symName: __ZN10num_traits4cast13FromPrimitive8from_i3217h4b9451c77642434bE, symObjAddr: 0x22B17, symBinAddr: 0x225DB, symSize: 0xE }
  - { offsetInCU: 0xB32F, offset: 0xEC23E, size: 0x8, addend: 0x0, symName: __ZN14powersync_core10sync_local13SyncOperation5apply17h65732aa2a1a652eaE, symObjAddr: 0x22B25, symBinAddr: 0x225E9, symSize: 0x11CB }
  - { offsetInCU: 0xD119, offset: 0xEE028, size: 0x8, addend: 0x0, symName: __ZN12sqlite_nostd5nostd11ManagedStmt11column_text17hd87220a4dd46d760E.1259, symObjAddr: 0x23CF0, symBinAddr: 0x237B4, symSize: 0x4C }
  - { offsetInCU: 0xD44A, offset: 0xEE359, size: 0x8, addend: 0x0, symName: __ZN14powersync_core10sync_local28RawTableWithCachedStatements14prepare_lazily17hd723128402f2a1f5E, symObjAddr: 0x23E39, symBinAddr: 0x238FD, symSize: 0x162 }
  - { offsetInCU: 0xD7E9, offset: 0xEE6F8, size: 0x8, addend: 0x0, symName: __ZN14powersync_core10sync_local13SyncOperation10use_schema17h3faf7f4bc05af13eE, symObjAddr: 0x23FAF, symBinAddr: 0x23A73, symSize: 0x89 }
  - { offsetInCU: 0x1E, offset: 0xEEB8F, size: 0x8, addend: 0x0, symName: '__ZN5alloc4sync16Arc$LT$T$C$A$GT$9drop_slow17h157d112fc892ec90E', symObjAddr: 0x24109, symBinAddr: 0x23BCD, symSize: 0x19 }
  - { offsetInCU: 0x120, offset: 0xEEC91, size: 0x8, addend: 0x0, symName: '__ZN95_$LT$$BP$mut$u20$sqlite3_capi..bindings..sqlite3$u20$as$u20$sqlite_nostd..nostd..Connection$GT$10prepare_v217hdce128889f6400baE.1325', symObjAddr: 0x24203, symBinAddr: 0x23CC7, symSize: 0x7D9 }
  - { offsetInCU: 0x1EA, offset: 0xEED5B, size: 0x8, addend: 0x0, symName: '__ZN95_$LT$$BP$mut$u20$sqlite3_capi..bindings..sqlite3$u20$as$u20$sqlite_nostd..nostd..Connection$GT$9exec_safe17h1a95d9dea7ce52ddE.1327', symObjAddr: 0x2541C, symBinAddr: 0x24EE0, symSize: 0x74 }
  - { offsetInCU: 0x8A2, offset: 0xEF413, size: 0x8, addend: 0x0, symName: '__ZN4core3ptr105drop_in_place$LT$core..result..Result$LT$alloc..ffi..c_str..CString$C$alloc..ffi..c_str..NulError$GT$$GT$17h50d5b1c2f9dfdbc8E.1335', symObjAddr: 0x25537, symBinAddr: 0x24FFB, symSize: 0x2C }
  - { offsetInCU: 0x9B7, offset: 0xEF528, size: 0x8, addend: 0x0, symName: '__ZN4core3ptr51drop_in_place$LT$powersync_core..schema..Schema$GT$17hd96abbe84e5467b3E.1338', symObjAddr: 0x26C15, symBinAddr: 0x266D9, symSize: 0x45 }
  - { offsetInCU: 0xB90, offset: 0xEF701, size: 0x8, addend: 0x0, symName: '__ZN4core3ptr50drop_in_place$LT$alloc..borrow..Cow$LT$str$GT$$GT$17h20a0e2dae19c5320E.1350', symObjAddr: 0x27850, symBinAddr: 0x27314, symSize: 0x14 }
  - { offsetInCU: 0xD14, offset: 0xEF885, size: 0x8, addend: 0x0, symName: '__ZN4core3ptr63drop_in_place$LT$powersync_core..error..PowerSyncErrorCause$GT$17hb99a015a023fe0bdE.1351', symObjAddr: 0x27864, symBinAddr: 0x27328, symSize: 0x5D }
  - { offsetInCU: 0x9045, offset: 0xF7BB6, size: 0x8, addend: 0x0, symName: '__ZN147_$LT$powersync_core..sync..checkpoint..OwnedBucketChecksum$u20$as$u20$core..convert..From$LT$$RF$powersync_core..sync..line..BucketChecksum$GT$$GT$4from17h9f83e32c948e9c83E', symObjAddr: 0x26C5A, symBinAddr: 0x2671E, symSize: 0xA5 }
  - { offsetInCU: 0x95BE, offset: 0xF812F, size: 0x8, addend: 0x0, symName: __ZN14powersync_core6schema10management24powersync_replace_schema17h31f9a622deefe7afE, symObjAddr: 0x25563, symBinAddr: 0x25027, symSize: 0x138 }
  - { offsetInCU: 0x9F06, offset: 0xF8A77, size: 0x8, addend: 0x0, symName: __ZN14powersync_core6schema10management29powersync_replace_schema_impl17ha1b4e53b8f6ca0dfE, symObjAddr: 0x2569B, symBinAddr: 0x2515F, symSize: 0x1560 }
  - { offsetInCU: 0xC080, offset: 0xFABF1, size: 0x8, addend: 0x0, symName: __ZN14powersync_core2kv9client_id17h2df6a8775f89ca6dE, symObjAddr: 0x24122, symBinAddr: 0x23BE6, symSize: 0xE1 }
  - { offsetInCU: 0xC337, offset: 0xFAEA8, size: 0x8, addend: 0x0, symName: __ZN14powersync_core2kv19powersync_client_id17hf87c50fe57b7e88dE, symObjAddr: 0x276A8, symBinAddr: 0x2716C, symSize: 0x75 }
  - { offsetInCU: 0xC546, offset: 0xFB0B7, size: 0x8, addend: 0x0, symName: __ZN14powersync_core2kv24powersync_last_synced_at17h996fbac98e635b4aE, symObjAddr: 0x2771D, symBinAddr: 0x271E1, symSize: 0x133 }
  - { offsetInCU: 0xC823, offset: 0xFB394, size: 0x8, addend: 0x0, symName: __ZN14powersync_core10migrations17powersync_migrate17hbcdffc1dc1726902E, symObjAddr: 0x249DC, symBinAddr: 0x244A0, symSize: 0xA40 }
  - { offsetInCU: 0xDA99, offset: 0xFC60A, size: 0x8, addend: 0x0, symName: _sqlite3_powersync_init, symObjAddr: 0x26D42, symBinAddr: 0x26806, symSize: 0x966 }
  - { offsetInCU: 0x111EB, offset: 0xFFD5C, size: 0x8, addend: 0x0, symName: '__ZN5alloc4sync16Arc$LT$T$C$A$GT$9drop_slow17h157d112fc892ec90E', symObjAddr: 0x24109, symBinAddr: 0x23BCD, symSize: 0x19 }
  - { offsetInCU: 0x1197C, offset: 0x1004ED, size: 0x8, addend: 0x0, symName: __ZN12sqlite_nostd5nostd11ManagedStmt8bind_int17hdf7e493e5a77bd96E.1329, symObjAddr: 0x25490, symBinAddr: 0x24F54, symSize: 0x16 }
  - { offsetInCU: 0x11A68, offset: 0x1005D9, size: 0x8, addend: 0x0, symName: '__ZN5alloc3vec16Vec$LT$T$C$A$GT$4push17haa5be136d1199608E.1332', symObjAddr: 0x254A6, symBinAddr: 0x24F6A, symSize: 0x54 }
  - { offsetInCU: 0x11BB1, offset: 0x100722, size: 0x8, addend: 0x0, symName: __ZN4core3fmt9Arguments6as_str17h94a1639c0a713e20E.1334, symObjAddr: 0x254FA, symBinAddr: 0x24FBE, symSize: 0x3D }
  - { offsetInCU: 0x12151, offset: 0x100CC2, size: 0x8, addend: 0x0, symName: __ZN12sqlite_nostd5nostd11ManagedStmt9bind_text17hba530f0d23cc6cecE.1337, symObjAddr: 0x26BFB, symBinAddr: 0x266BF, symSize: 0x1A }
  - { offsetInCU: 0x12224, offset: 0x100D95, size: 0x8, addend: 0x0, symName: '__ZN5alloc3vec16Vec$LT$T$C$A$GT$4push17h7e52f4fafb5135a6E', symObjAddr: 0x26CFF, symBinAddr: 0x267C3, symSize: 0x43 }
  - { offsetInCU: 0x1E, offset: 0x102A75, size: 0x8, addend: 0x0, symName: __ZN10serde_json3ser18format_escaped_str17hbf938718882c2573E, symObjAddr: 0x278C1, symBinAddr: 0x27385, symSize: 0x124 }
  - { offsetInCU: 0x291, offset: 0x102CE8, size: 0x8, addend: 0x0, symName: '__ZN164_$LT$$LT$powersync_core..sync..bucket_priority..BucketPriority$u20$as$u20$serde..de..Deserialize$GT$..deserialize..PriorityVisitor$u20$as$u20$serde..de..Visitor$GT$9visit_i3217h3111d50c239b1597E', symObjAddr: 0x286D9, symBinAddr: 0x2810D, symSize: 0x153 }
  - { offsetInCU: 0x509, offset: 0x102F60, size: 0x8, addend: 0x0, symName: '__ZN164_$LT$$LT$powersync_core..sync..bucket_priority..BucketPriority$u20$as$u20$serde..de..Deserialize$GT$..deserialize..PriorityVisitor$u20$as$u20$serde..de..Visitor$GT$9visit_i3217ha8462750ec7ad060E', symObjAddr: 0x2882C, symBinAddr: 0x28260, symSize: 0x14C }
  - { offsetInCU: 0x7EE, offset: 0x103245, size: 0x8, addend: 0x0, symName: '__ZN96_$LT$powersync_core..sync..bucket_priority..BucketPriority$u20$as$u20$serde..de..Deserialize$GT$11deserialize17h01c46670062cce71E', symObjAddr: 0x28397, symBinAddr: 0x27DCB, symSize: 0x245 }
  - { offsetInCU: 0xB90, offset: 0x1035E7, size: 0x8, addend: 0x0, symName: '__ZN96_$LT$powersync_core..sync..bucket_priority..BucketPriority$u20$as$u20$serde..de..Deserialize$GT$11deserialize17hb3517a6ebfb8ce3eE', symObjAddr: 0x285DC, symBinAddr: 0x28010, symSize: 0xFD }
  - { offsetInCU: 0xDAC, offset: 0x103803, size: 0x8, addend: 0x0, symName: '__ZN107_$LT$powersync_core..sync..bucket_priority..BucketPriority$u20$as$u20$core..convert..TryFrom$LT$i32$GT$$GT$8try_from17h499b100450395991E', symObjAddr: 0x28360, symBinAddr: 0x27D94, symSize: 0x37 }
  - { offsetInCU: 0x232F, offset: 0x104D86, size: 0x8, addend: 0x0, symName: '__ZN83_$LT$serde_json..ser..Compound$LT$W$C$F$GT$$u20$as$u20$serde..ser..SerializeMap$GT$3end17h4d78a8567297753fE', symObjAddr: 0x27B2E, symBinAddr: 0x2757A, symSize: 0x24 }
  - { offsetInCU: 0x2426, offset: 0x104E7D, size: 0x8, addend: 0x0, symName: '__ZN83_$LT$serde_json..ser..Compound$LT$W$C$F$GT$$u20$as$u20$serde..ser..SerializeMap$GT$13serialize_key17h81b52b34971c83d4E', symObjAddr: 0x27CDC, symBinAddr: 0x27728, symSize: 0x54 }
  - { offsetInCU: 0x32C6, offset: 0x105D1D, size: 0x8, addend: 0x0, symName: '__ZN91_$LT$serde_json..ser..RawValueStrEmitter$LT$W$C$F$GT$$u20$as$u20$serde..ser..Serializer$GT$14serialize_bool17h98d6cdb16589b293E', symObjAddr: 0x28345, symBinAddr: 0x432B9, symSize: 0x1B }
  - { offsetInCU: 0x35AF, offset: 0x106006, size: 0x8, addend: 0x0, symName: '__ZN83_$LT$serde_json..ser..Compound$LT$W$C$F$GT$$u20$as$u20$serde..ser..SerializeSeq$GT$3end17h2851991bebb6716dE', symObjAddr: 0x28120, symBinAddr: 0x27B6C, symSize: 0x24 }
  - { offsetInCU: 0x38CA, offset: 0x106321, size: 0x8, addend: 0x0, symName: '__ZN95_$LT$$RF$mut$u20$serde_json..ser..Serializer$LT$W$C$F$GT$$u20$as$u20$serde..ser..Serializer$GT$13serialize_map17haa55fc067d568cdbE', symObjAddr: 0x27ADB, symBinAddr: 0x27527, symSize: 0x53 }
  - { offsetInCU: 0x39C2, offset: 0x106419, size: 0x8, addend: 0x0, symName: '__ZN95_$LT$$RF$mut$u20$serde_json..ser..Serializer$LT$W$C$F$GT$$u20$as$u20$serde..ser..Serializer$GT$16serialize_struct17h1e484eaa7568945eE.1377', symObjAddr: 0x27BA0, symBinAddr: 0x275EC, symSize: 0x5E }
  - { offsetInCU: 0x3AFB, offset: 0x106552, size: 0x8, addend: 0x0, symName: '__ZN95_$LT$$RF$mut$u20$serde_json..ser..Serializer$LT$W$C$F$GT$$u20$as$u20$serde..ser..Serializer$GT$13serialize_seq17h1481cbe5755921e2E', symObjAddr: 0x27E55, symBinAddr: 0x278A1, symSize: 0x53 }
  - { offsetInCU: 0x3BF4, offset: 0x10664B, size: 0x8, addend: 0x0, symName: '__ZN95_$LT$$RF$mut$u20$serde_json..ser..Serializer$LT$W$C$F$GT$$u20$as$u20$serde..ser..Serializer$GT$14serialize_unit17hccd7f839c4423cd1E', symObjAddr: 0x2815C, symBinAddr: 0x27BA8, symSize: 0x18 }
  - { offsetInCU: 0x3CAE, offset: 0x106705, size: 0x8, addend: 0x0, symName: '__ZN95_$LT$$RF$mut$u20$serde_json..ser..Serializer$LT$W$C$F$GT$$u20$as$u20$serde..ser..Serializer$GT$14serialize_bool17hb04f9ad2e8bdec47E', symObjAddr: 0x28174, symBinAddr: 0x27BC0, symSize: 0x2A }
  - { offsetInCU: 0x41B4, offset: 0x106C0B, size: 0x8, addend: 0x0, symName: __ZN10serde_json3ser9Formatter10end_object17h274b0b4ada8b4c56E, symObjAddr: 0x27B52, symBinAddr: 0x2759E, symSize: 0x18 }
  - { offsetInCU: 0x4268, offset: 0x106CBF, size: 0x8, addend: 0x0, symName: __ZN10serde_json3ser9Formatter16begin_object_key17h54db84ad99f8a6d8E, symObjAddr: 0x27B6A, symBinAddr: 0x275B6, symSize: 0x1E }
  - { offsetInCU: 0x432C, offset: 0x106D83, size: 0x8, addend: 0x0, symName: __ZN10serde_json3ser9Formatter18begin_object_value17h04fa6b0f1c56fff4E, symObjAddr: 0x27B88, symBinAddr: 0x275D4, symSize: 0x18 }
  - { offsetInCU: 0x44E8, offset: 0x106F3F, size: 0x8, addend: 0x0, symName: __ZN10serde_json3ser9Formatter9end_array17h19e3002db4259b26E, symObjAddr: 0x28144, symBinAddr: 0x27B90, symSize: 0x18 }
  - { offsetInCU: 0x4879, offset: 0x1072D0, size: 0x8, addend: 0x0, symName: __ZN10serde_json3ser18format_escaped_str17hbf938718882c2573E, symObjAddr: 0x278C1, symBinAddr: 0x27385, symSize: 0x124 }
  - { offsetInCU: 0x4DF1, offset: 0x107848, size: 0x8, addend: 0x0, symName: '__ZN86_$LT$serde_json..ser..Compound$LT$W$C$F$GT$$u20$as$u20$serde..ser..SerializeStruct$GT$15serialize_field17h5dea00c93ecfecffE', symObjAddr: 0x27BFE, symBinAddr: 0x2764A, symSize: 0x44 }
  - { offsetInCU: 0x4EA1, offset: 0x1078F8, size: 0x8, addend: 0x0, symName: '__ZN86_$LT$serde_json..ser..Compound$LT$W$C$F$GT$$u20$as$u20$serde..ser..SerializeStruct$GT$15serialize_field17hd4b533786f895702E', symObjAddr: 0x27C42, symBinAddr: 0x2768E, symSize: 0x6E }
  - { offsetInCU: 0x4F9F, offset: 0x1079F6, size: 0x8, addend: 0x0, symName: '__ZN86_$LT$serde_json..ser..Compound$LT$W$C$F$GT$$u20$as$u20$serde..ser..SerializeStruct$GT$3end17h81fafa3c29bfe915E.1378', symObjAddr: 0x27CB0, symBinAddr: 0x276FC, symSize: 0x11 }
  - { offsetInCU: 0x4FE0, offset: 0x107A37, size: 0x8, addend: 0x0, symName: '__ZN86_$LT$serde_json..ser..Compound$LT$W$C$F$GT$$u20$as$u20$serde..ser..SerializeStruct$GT$15serialize_field17hcb01943a3afa3749E', symObjAddr: 0x2830B, symBinAddr: 0x27D57, symSize: 0x3A }
  - { offsetInCU: 0x56D2, offset: 0x108129, size: 0x8, addend: 0x0, symName: '__ZN10serde_json5value3ser76_$LT$impl$u20$serde..ser..Serialize$u20$for$u20$serde_json..value..Value$GT$9serialize17h42cda22e230f529eE', symObjAddr: 0x27EA8, symBinAddr: 0x278F4, symSize: 0x278 }
  - { offsetInCU: 0x627E, offset: 0x108CD5, size: 0x8, addend: 0x0, symName: '__ZN4core3cmp5impls69_$LT$impl$u20$core..cmp..PartialEq$LT$$RF$B$GT$$u20$for$u20$$RF$A$GT$2eq17hca003bfbe47a309eE.1379', symObjAddr: 0x27CC1, symBinAddr: 0x2770D, symSize: 0x1B }
  - { offsetInCU: 0x81C7, offset: 0x10AC1E, size: 0x8, addend: 0x0, symName: '__ZN4core3ptr104drop_in_place$LT$core..option..Option$LT$powersync_core..sync..sync_status..SyncDownloadProgress$GT$$GT$17h1368c0b546e906fdE', symObjAddr: 0x28978, symBinAddr: 0x283AC, symSize: 0x15 }
  - { offsetInCU: 0x927D, offset: 0x10BCD4, size: 0x8, addend: 0x0, symName: '__ZN44_$LT$$RF$T$u20$as$u20$core..fmt..Display$GT$3fmt17h1449d223e7b8e6fbE', symObjAddr: 0x27A2B, symBinAddr: 0x274EF, symSize: 0x2B }
  - { offsetInCU: 0x931D, offset: 0x10BD74, size: 0x8, addend: 0x0, symName: '__ZN44_$LT$$RF$T$u20$as$u20$core..fmt..Display$GT$3fmt17h471fa9de91ffa3ddE', symObjAddr: 0x27A56, symBinAddr: 0x2751A, symSize: 0xD }
  - { offsetInCU: 0x9D4D, offset: 0x10C7A4, size: 0x8, addend: 0x0, symName: __ZN5serde2de7Visitor11visit_bytes17ha2ae715e8f404f77E, symObjAddr: 0x27A63, symBinAddr: 0x4323F, symSize: 0x3C }
  - { offsetInCU: 0x9D9E, offset: 0x10C7F5, size: 0x8, addend: 0x0, symName: __ZN5serde2de7Visitor9visit_str17hcbc69d11b6848bc7E, symObjAddr: 0x27A9F, symBinAddr: 0x4327B, symSize: 0x3C }
  - { offsetInCU: 0x9F15, offset: 0x10C96C, size: 0x8, addend: 0x0, symName: '__ZN41_$LT$T$u20$as$u20$serde..de..Expected$GT$3fmt17h1926b5e54423557dE', symObjAddr: 0x279E5, symBinAddr: 0x274A9, symSize: 0x23 }
  - { offsetInCU: 0x9F8D, offset: 0x10C9E4, size: 0x8, addend: 0x0, symName: '__ZN41_$LT$T$u20$as$u20$serde..de..Expected$GT$3fmt17h87c14e23336fb7cdE', symObjAddr: 0x27A08, symBinAddr: 0x274CC, symSize: 0x23 }
  - { offsetInCU: 0xA244, offset: 0x10CC9B, size: 0x8, addend: 0x0, symName: __ZN5serde3ser12SerializeMap15serialize_entry17h09db2f2d65dfac94E, symObjAddr: 0x27D5D, symBinAddr: 0x277A9, symSize: 0xF8 }
  - { offsetInCU: 0xA54E, offset: 0x10CFA5, size: 0x8, addend: 0x0, symName: __ZN5serde3ser12SerializeMap15serialize_entry17h731a5fd2a988b322E, symObjAddr: 0x2819E, symBinAddr: 0x27BEA, symSize: 0x6A }
  - { offsetInCU: 0xA6BF, offset: 0x10D116, size: 0x8, addend: 0x0, symName: __ZN5serde3ser12SerializeMap15serialize_entry17h8cf36cac6c082b32E, symObjAddr: 0x282D1, symBinAddr: 0x27D1D, symSize: 0x3A }
  - { offsetInCU: 0xB34C, offset: 0x10DDA3, size: 0x8, addend: 0x0, symName: '__ZN5serde3ser5impls55_$LT$impl$u20$serde..ser..Serialize$u20$for$u20$i64$GT$9serialize17hf14ae9c9c7ee6d27E', symObjAddr: 0x27D30, symBinAddr: 0x2777C, symSize: 0x2D }
  - { offsetInCU: 0xBCF8, offset: 0x10E74F, size: 0x8, addend: 0x0, symName: __ZN5serde3ser10Serializer11collect_seq17hc2996edfff654f4fE, symObjAddr: 0x28208, symBinAddr: 0x27C54, symSize: 0xC9 }
  - { offsetInCU: 0xE3EC, offset: 0x110E43, size: 0x8, addend: 0x0, symName: __ZN14powersync_core4sync11sync_status19SyncStatusContainer12emit_changes17hd5fc175489792b1aE, symObjAddr: 0x2898D, symBinAddr: 0x283C1, symSize: 0x37C }
  - { offsetInCU: 0xFA1F, offset: 0x112476, size: 0x8, addend: 0x0, symName: '__ZN4core4cell16RefCell$LT$T$GT$10borrow_mut17h5e2b3720f186f2c0E', symObjAddr: 0x28D09, symBinAddr: 0x2873D, symSize: 0x1B }
  - { offsetInCU: 0xFA46, offset: 0x11249D, size: 0x8, addend: 0x0, symName: '__ZN4core4cell16RefCell$LT$T$GT$10borrow_mut17h5e2b3720f186f2c0E', symObjAddr: 0x28D09, symBinAddr: 0x2873D, symSize: 0x1B }
  - { offsetInCU: 0xFA62, offset: 0x1124B9, size: 0x8, addend: 0x0, symName: '__ZN4core4cell16RefCell$LT$T$GT$10borrow_mut17h5e2b3720f186f2c0E', symObjAddr: 0x28D09, symBinAddr: 0x2873D, symSize: 0x1B }
  - { offsetInCU: 0x1E, offset: 0x112F54, size: 0x8, addend: 0x0, symName: '__ZN5alloc5slice29_$LT$impl$u20$$u5b$T$u5d$$GT$4sort17haa26eea3cc858178E', symObjAddr: 0x28D24, symBinAddr: 0x28758, symSize: 0x55 }
  - { offsetInCU: 0x44, offset: 0x112F7A, size: 0x8, addend: 0x0, symName: __ZN14powersync_core9crud_vtab6MODULE17h11709c025df6b917E, symObjAddr: 0x44D90, symBinAddr: 0x51650, symSize: 0x0 }
  - { offsetInCU: 0x279, offset: 0x1131AF, size: 0x8, addend: 0x0, symName: __ZN14powersync_core9crud_vtab7connect17h0c2e2e16cfbe95a1E, symObjAddr: 0x29411, symBinAddr: 0x28E45, symSize: 0xDE }
  - { offsetInCU: 0x8D1, offset: 0x113807, size: 0x8, addend: 0x0, symName: __ZN14powersync_core9crud_vtab6update17h80466e431516b99aE, symObjAddr: 0x2951B, symBinAddr: 0x28F4F, symSize: 0x626 }
  - { offsetInCU: 0x1347, offset: 0x11427D, size: 0x8, addend: 0x0, symName: __ZN14powersync_core9crud_vtab5begin17h5ee46f73b5c92765E, symObjAddr: 0x29B41, symBinAddr: 0x29575, symSize: 0xCA }
  - { offsetInCU: 0x1504, offset: 0x11443A, size: 0x8, addend: 0x0, symName: __ZN14powersync_core9crud_vtab6commit17hb9e22cc337690f56E, symObjAddr: 0x29C0B, symBinAddr: 0x2963F, symSize: 0xD }
  - { offsetInCU: 0x1BCA, offset: 0x114B00, size: 0x8, addend: 0x0, symName: '__ZN14powersync_core6schema1_83_$LT$impl$u20$serde..de..Deserialize$u20$for$u20$powersync_core..schema..Schema$GT$11deserialize17h3b587d4fe6a2d93bE', symObjAddr: 0x2AEAD, symBinAddr: 0x2A8E1, symSize: 0x7C4 }
  - { offsetInCU: 0x266B, offset: 0x1155A1, size: 0x8, addend: 0x0, symName: __ZN14powersync_core10view_admin19powersync_drop_view17h2cc082adf25f4742E, symObjAddr: 0x2A0E3, symBinAddr: 0x29B17, symSize: 0x18A }
  - { offsetInCU: 0x2BA4, offset: 0x115ADA, size: 0x8, addend: 0x0, symName: __ZN14powersync_core10view_admin14powersync_exec17hc101c6d36e056893E, symObjAddr: 0x2A26D, symBinAddr: 0x29CA1, symSize: 0xCC }
  - { offsetInCU: 0x2EC9, offset: 0x115DFF, size: 0x8, addend: 0x0, symName: __ZN14powersync_core10view_admin14powersync_init17h95774db158c81baeE, symObjAddr: 0x2A339, symBinAddr: 0x29D6D, symSize: 0x115 }
  - { offsetInCU: 0x31CD, offset: 0x116103, size: 0x8, addend: 0x0, symName: __ZN14powersync_core10view_admin24powersync_test_migration17h8efd9a3a569e1e02E, symObjAddr: 0x2A44E, symBinAddr: 0x29E82, symSize: 0x138 }
  - { offsetInCU: 0x34E2, offset: 0x116418, size: 0x8, addend: 0x0, symName: __ZN14powersync_core10view_admin15powersync_clear17hbc946bec09000effE, symObjAddr: 0x2A586, symBinAddr: 0x29FBA, symSize: 0x138 }
  - { offsetInCU: 0x3795, offset: 0x1166CB, size: 0x8, addend: 0x0, symName: __ZN14powersync_core10view_admin29powersync_external_table_name17h12b2fb6a4de3242aE, symObjAddr: 0x2A6BE, symBinAddr: 0x2A0F2, symSize: 0xEF }
  - { offsetInCU: 0x3AE7, offset: 0x116A1D, size: 0x8, addend: 0x0, symName: __ZN14powersync_core10view_admin29powersync_internal_table_name17h0803cad049dc4a77E, symObjAddr: 0x2A7AD, symBinAddr: 0x2A1E1, symSize: 0x19F }
  - { offsetInCU: 0x3DB4, offset: 0x116CEA, size: 0x8, addend: 0x0, symName: __ZN14powersync_core10view_admin20powersync_clear_impl17h238168922e50ad28E, symObjAddr: 0x2A972, symBinAddr: 0x2A3A6, symSize: 0x382 }
  - { offsetInCU: 0x4601, offset: 0x117537, size: 0x8, addend: 0x0, symName: __ZN14powersync_core10view_admin29powersync_test_migration_impl17hb06cebf43c60c1cfE, symObjAddr: 0x2ADB8, symBinAddr: 0x2A7EC, symSize: 0x59 }
  - { offsetInCU: 0x4779, offset: 0x1176AF, size: 0x8, addend: 0x0, symName: __ZN14powersync_core10view_admin19powersync_init_impl17h3ef7717fde646a15E, symObjAddr: 0x2AE11, symBinAddr: 0x2A845, symSize: 0x9C }
  - { offsetInCU: 0x48CD, offset: 0x117803, size: 0x8, addend: 0x0, symName: __ZN14powersync_core9vtab_util12vtab_no_open17h81d5196db131fe20E, symObjAddr: 0x294EF, symBinAddr: 0x28F23, symSize: 0xB }
  - { offsetInCU: 0x4901, offset: 0x117837, size: 0x8, addend: 0x0, symName: __ZN14powersync_core9vtab_util14vtab_no_filter17h817a312c61d6990bE, symObjAddr: 0x294FA, symBinAddr: 0x28F2E, symSize: 0xB }
  - { offsetInCU: 0x4956, offset: 0x11788C, size: 0x8, addend: 0x0, symName: __ZN14powersync_core9vtab_util11vtab_no_eof17h2e02cd70785c0240E, symObjAddr: 0x29505, symBinAddr: 0x28F39, symSize: 0xB }
  - { offsetInCU: 0x497F, offset: 0x1178B5, size: 0x8, addend: 0x0, symName: __ZN14powersync_core9vtab_util14vtab_no_column17h4fe99599dfe7b835E, symObjAddr: 0x29510, symBinAddr: 0x28F44, symSize: 0xB }
  - { offsetInCU: 0x4C22, offset: 0x117B58, size: 0x8, addend: 0x0, symName: '__ZN89_$LT$sqlite_nostd..nostd..ManagedStmt$u20$as$u20$powersync_core..ext..SafeManagedStmt$GT$4exec17h3430b70f06f5d9ddE', symObjAddr: 0x29D8F, symBinAddr: 0x297C3, symSize: 0x43 }
  - { offsetInCU: 0x4D0A, offset: 0x117C40, size: 0x8, addend: 0x0, symName: '__ZN101_$LT$$BP$mut$u20$sqlite3_capi..bindings..sqlite3$u20$as$u20$powersync_core..ext..ExtendedDatabase$GT$9exec_text17h3c0795755d0e214fE', symObjAddr: 0x2A05B, symBinAddr: 0x29A8F, symSize: 0x88 }
  - { offsetInCU: 0x6A0B, offset: 0x119941, size: 0x8, addend: 0x0, symName: '__ZN4core3ptr97drop_in_place$LT$core..option..Option$LT$powersync_core..crud_vtab..ActiveCrudTransaction$GT$$GT$17h4d4b22cd6e9065b0E', symObjAddr: 0x29C39, symBinAddr: 0x2966D, symSize: 0x42 }
  - { offsetInCU: 0x6C6F, offset: 0x119BA5, size: 0x8, addend: 0x0, symName: '__ZN4core3ptr110drop_in_place$LT$core..result..Result$LT$alloc..string..String$C$powersync_core..error..PowerSyncError$GT$$GT$17h513e4c93781328d9E', symObjAddr: 0x2ACF4, symBinAddr: 0x2A728, symSize: 0xC4 }
  - { offsetInCU: 0x8B47, offset: 0x11BA7D, size: 0x8, addend: 0x0, symName: '__ZN4core3str6traits66_$LT$impl$u20$core..ops..index..Index$LT$I$GT$$u20$for$u20$str$GT$5index17h495dcad2b4f9fc27E.1530', symObjAddr: 0x2A94C, symBinAddr: 0x2A380, symSize: 0x26 }
  - { offsetInCU: 0x8B86, offset: 0x11BABC, size: 0x8, addend: 0x0, symName: '__ZN4core3str6traits66_$LT$impl$u20$core..ops..index..Index$LT$I$GT$$u20$for$u20$str$GT$5index17h495dcad2b4f9fc27E.1530', symObjAddr: 0x2A94C, symBinAddr: 0x2A380, symSize: 0x26 }
  - { offsetInCU: 0x8BA6, offset: 0x11BADC, size: 0x8, addend: 0x0, symName: '__ZN4core3str6traits66_$LT$impl$u20$core..ops..index..Index$LT$I$GT$$u20$for$u20$str$GT$5index17h495dcad2b4f9fc27E.1530', symObjAddr: 0x2A94C, symBinAddr: 0x2A380, symSize: 0x26 }
  - { offsetInCU: 0x8BE4, offset: 0x11BB1A, size: 0x8, addend: 0x0, symName: '__ZN4core3str6traits66_$LT$impl$u20$core..ops..index..Index$LT$I$GT$$u20$for$u20$str$GT$5index17h495dcad2b4f9fc27E.1530', symObjAddr: 0x2A94C, symBinAddr: 0x2A380, symSize: 0x26 }
  - { offsetInCU: 0x96D3, offset: 0x11C609, size: 0x8, addend: 0x0, symName: '__ZN96_$LT$$BP$mut$u20$sqlite3_capi..bindings..sqlite3_value$u20$as$u20$sqlite_nostd..nostd..Value$GT$10value_type17h9149efed65220ed1E', symObjAddr: 0x29CE1, symBinAddr: 0x29715, symSize: 0x19 }
  - { offsetInCU: 0x9758, offset: 0x11C68E, size: 0x8, addend: 0x0, symName: '__ZN96_$LT$$BP$mut$u20$sqlite3_capi..bindings..sqlite3_value$u20$as$u20$sqlite_nostd..nostd..Value$GT$3int17h7d849962fc578a1eE', symObjAddr: 0x29D71, symBinAddr: 0x297A5, symSize: 0x1E }
  - { offsetInCU: 0x9785, offset: 0x11C6BB, size: 0x8, addend: 0x0, symName: '__ZN96_$LT$$BP$mut$u20$sqlite3_capi..bindings..sqlite3_value$u20$as$u20$sqlite_nostd..nostd..Value$GT$3int17h7d849962fc578a1eE', symObjAddr: 0x29D71, symBinAddr: 0x297A5, symSize: 0x1E }
  - { offsetInCU: 0x9804, offset: 0x11C73A, size: 0x8, addend: 0x0, symName: '__ZN95_$LT$$BP$mut$u20$sqlite3_capi..bindings..sqlite3$u20$as$u20$sqlite_nostd..nostd..Connection$GT$10prepare_v217hdce128889f6400baE.1508', symObjAddr: 0x29C7B, symBinAddr: 0x296AF, symSize: 0x66 }
  - { offsetInCU: 0x989E, offset: 0x11C7D4, size: 0x8, addend: 0x0, symName: '__ZN95_$LT$$BP$mut$u20$sqlite3_capi..bindings..sqlite3$u20$as$u20$sqlite_nostd..nostd..Connection$GT$10prepare_v317hc779f7fd6f67fe2aE', symObjAddr: 0x29CFA, symBinAddr: 0x2972E, symSize: 0x77 }
  - { offsetInCU: 0x99A1, offset: 0x11C8D7, size: 0x8, addend: 0x0, symName: '__ZN95_$LT$$BP$mut$u20$sqlite3_capi..bindings..sqlite3$u20$as$u20$sqlite_nostd..nostd..Connection$GT$9exec_safe17h1a95d9dea7ce52ddE.1516', symObjAddr: 0x29DF7, symBinAddr: 0x2982B, symSize: 0x79 }
  - { offsetInCU: 0x9BBA, offset: 0x11CAF0, size: 0x8, addend: 0x0, symName: '__ZN95_$LT$$RF$mut$u20$serde_json..ser..Serializer$LT$W$C$F$GT$$u20$as$u20$serde..ser..Serializer$GT$16serialize_struct17h1e484eaa7568945eE.1465', symObjAddr: 0x292DC, symBinAddr: 0x28D10, symSize: 0x51 }
  - { offsetInCU: 0x9EF0, offset: 0x11CE26, size: 0x8, addend: 0x0, symName: '__ZN86_$LT$serde_json..ser..Compound$LT$W$C$F$GT$$u20$as$u20$serde..ser..SerializeStruct$GT$15serialize_field17hdadab529c0f29f56E', symObjAddr: 0x29E70, symBinAddr: 0x298A4, symSize: 0x97 }
  - { offsetInCU: 0xA25D, offset: 0x11D193, size: 0x8, addend: 0x0, symName: '__ZN86_$LT$serde_json..ser..Compound$LT$W$C$F$GT$$u20$as$u20$serde..ser..SerializeStruct$GT$15serialize_field17hab2a8690a3c49532E', symObjAddr: 0x29F07, symBinAddr: 0x2993B, symSize: 0x154 }
  - { offsetInCU: 0xACCE, offset: 0x11DC04, size: 0x8, addend: 0x0, symName: '__ZN77_$LT$alloc..raw_vec..RawVec$LT$T$C$A$GT$$u20$as$u20$core..ops..drop..Drop$GT$4drop17h25cb642f0ac2dc27E', symObjAddr: 0x291CA, symBinAddr: 0x28BFE, symSize: 0x1E }
  - { offsetInCU: 0xAD07, offset: 0x11DC3D, size: 0x8, addend: 0x0, symName: '__ZN77_$LT$alloc..raw_vec..RawVec$LT$T$C$A$GT$$u20$as$u20$core..ops..drop..Drop$GT$4drop17h04151e7f312ca3f7E', symObjAddr: 0x2932D, symBinAddr: 0x28D61, symSize: 0x1E }
  - { offsetInCU: 0xAD40, offset: 0x11DC76, size: 0x8, addend: 0x0, symName: '__ZN77_$LT$alloc..raw_vec..RawVec$LT$T$C$A$GT$$u20$as$u20$core..ops..drop..Drop$GT$4drop17h0487042c018c99d3E', symObjAddr: 0x2934B, symBinAddr: 0x28D7F, symSize: 0x1E }
  - { offsetInCU: 0xAD79, offset: 0x11DCAF, size: 0x8, addend: 0x0, symName: '__ZN77_$LT$alloc..raw_vec..RawVec$LT$T$C$A$GT$$u20$as$u20$core..ops..drop..Drop$GT$4drop17h5f2e807afb46aff6E', symObjAddr: 0x29369, symBinAddr: 0x28D9D, symSize: 0x1E }
  - { offsetInCU: 0xADB2, offset: 0x11DCE8, size: 0x8, addend: 0x0, symName: '__ZN77_$LT$alloc..raw_vec..RawVec$LT$T$C$A$GT$$u20$as$u20$core..ops..drop..Drop$GT$4drop17h633e5c2785857642E', symObjAddr: 0x29387, symBinAddr: 0x28DBB, symSize: 0x1E }
  - { offsetInCU: 0xADEB, offset: 0x11DD21, size: 0x8, addend: 0x0, symName: '__ZN77_$LT$alloc..raw_vec..RawVec$LT$T$C$A$GT$$u20$as$u20$core..ops..drop..Drop$GT$4drop17h75350378f72afc4fE', symObjAddr: 0x293A5, symBinAddr: 0x28DD9, symSize: 0x19 }
  - { offsetInCU: 0xAE24, offset: 0x11DD5A, size: 0x8, addend: 0x0, symName: '__ZN77_$LT$alloc..raw_vec..RawVec$LT$T$C$A$GT$$u20$as$u20$core..ops..drop..Drop$GT$4drop17hafc51db5fdad45a7E', symObjAddr: 0x293BE, symBinAddr: 0x28DF2, symSize: 0x17 }
  - { offsetInCU: 0xAE5D, offset: 0x11DD93, size: 0x8, addend: 0x0, symName: '__ZN77_$LT$alloc..raw_vec..RawVec$LT$T$C$A$GT$$u20$as$u20$core..ops..drop..Drop$GT$4drop17hdd68710fca6077f4E', symObjAddr: 0x293D5, symBinAddr: 0x28E09, symSize: 0x1E }
  - { offsetInCU: 0xAE96, offset: 0x11DDCC, size: 0x8, addend: 0x0, symName: '__ZN77_$LT$alloc..raw_vec..RawVec$LT$T$C$A$GT$$u20$as$u20$core..ops..drop..Drop$GT$4drop17hf00a26cfa32bf961E', symObjAddr: 0x293F3, symBinAddr: 0x28E27, symSize: 0x1E }
  - { offsetInCU: 0xBD49, offset: 0x11EC7F, size: 0x8, addend: 0x0, symName: __ZN5alloc5alloc15exchange_malloc17h238ed74f6b8dc009E.1433, symObjAddr: 0x29168, symBinAddr: 0x28B9C, symSize: 0x1B }
  - { offsetInCU: 0xC251, offset: 0x11F187, size: 0x8, addend: 0x0, symName: '__ZN5alloc5slice29_$LT$impl$u20$$u5b$T$u5d$$GT$4sort17haa26eea3cc858178E', symObjAddr: 0x28D24, symBinAddr: 0x28758, symSize: 0x55 }
  - { offsetInCU: 0xD2E2, offset: 0x120218, size: 0x8, addend: 0x0, symName: '__ZN41_$LT$T$u20$as$u20$serde..de..Expected$GT$3fmt17hb55a103954f9564bE', symObjAddr: 0x29145, symBinAddr: 0x28B79, symSize: 0x23 }
  - { offsetInCU: 0xD61E, offset: 0x120554, size: 0x8, addend: 0x0, symName: '__ZN5alloc11collections5btree3set21BTreeSet$LT$T$C$A$GT$16from_sorted_iter17h10712b61118120a7E', symObjAddr: 0x28D79, symBinAddr: 0x287AD, symSize: 0x3CC }
  - { offsetInCU: 0xE536, offset: 0x12146C, size: 0x8, addend: 0x0, symName: '__ZN5alloc2rc15Rc$LT$T$C$A$GT$9drop_slow17hbd83e488bcc1fe86E', symObjAddr: 0x29183, symBinAddr: 0x28BB7, symSize: 0x47 }
  - { offsetInCU: 0xE7E6, offset: 0x12171C, size: 0x8, addend: 0x0, symName: '__ZN5alloc7raw_vec19RawVec$LT$T$C$A$GT$8grow_one17h0d0247cf2a853ecfE', symObjAddr: 0x291E8, symBinAddr: 0x28C1C, symSize: 0x14 }
  - { offsetInCU: 0xE827, offset: 0x12175D, size: 0x8, addend: 0x0, symName: '__ZN5alloc7raw_vec20RawVecInner$LT$A$GT$8grow_one17h86516088da99e669E', symObjAddr: 0x291FC, symBinAddr: 0x28C30, symSize: 0x31 }
  - { offsetInCU: 0xE888, offset: 0x1217BE, size: 0x8, addend: 0x0, symName: '__ZN5alloc7raw_vec19RawVec$LT$T$C$A$GT$8grow_one17h22c6254b800af70dE', symObjAddr: 0x2922D, symBinAddr: 0x28C61, symSize: 0x14 }
  - { offsetInCU: 0xE8C9, offset: 0x1217FF, size: 0x8, addend: 0x0, symName: '__ZN5alloc7raw_vec19RawVec$LT$T$C$A$GT$8grow_one17h2aea02f221ba404eE', symObjAddr: 0x29241, symBinAddr: 0x28C75, symSize: 0xF }
  - { offsetInCU: 0xE90A, offset: 0x121840, size: 0x8, addend: 0x0, symName: '__ZN5alloc7raw_vec19RawVec$LT$T$C$A$GT$8grow_one17h2dd6b09c1613b334E', symObjAddr: 0x29250, symBinAddr: 0x28C84, symSize: 0x14 }
  - { offsetInCU: 0xE9AA, offset: 0x1218E0, size: 0x8, addend: 0x0, symName: '__ZN5alloc7raw_vec19RawVec$LT$T$C$A$GT$8grow_one17h42c058582cfdef12E', symObjAddr: 0x29264, symBinAddr: 0x28C98, symSize: 0x14 }
  - { offsetInCU: 0xE9EB, offset: 0x121921, size: 0x8, addend: 0x0, symName: '__ZN5alloc7raw_vec19RawVec$LT$T$C$A$GT$8grow_one17h597c8d306596ce5fE', symObjAddr: 0x29278, symBinAddr: 0x28CAC, symSize: 0x14 }
  - { offsetInCU: 0xEA2C, offset: 0x121962, size: 0x8, addend: 0x0, symName: '__ZN5alloc7raw_vec19RawVec$LT$T$C$A$GT$8grow_one17h5c36116f31890baaE', symObjAddr: 0x2928C, symBinAddr: 0x28CC0, symSize: 0x14 }
  - { offsetInCU: 0xEA6D, offset: 0x1219A3, size: 0x8, addend: 0x0, symName: '__ZN5alloc7raw_vec19RawVec$LT$T$C$A$GT$8grow_one17h7032fa77935d7499E', symObjAddr: 0x292A0, symBinAddr: 0x28CD4, symSize: 0x14 }
  - { offsetInCU: 0xEAAE, offset: 0x1219E4, size: 0x8, addend: 0x0, symName: '__ZN5alloc7raw_vec19RawVec$LT$T$C$A$GT$8grow_one17h7e4d00876f2b3e06E', symObjAddr: 0x292B4, symBinAddr: 0x28CE8, symSize: 0x14 }
  - { offsetInCU: 0xEAEF, offset: 0x121A25, size: 0x8, addend: 0x0, symName: '__ZN5alloc7raw_vec19RawVec$LT$T$C$A$GT$8grow_one17hcdadbb024f0ef0bdE', symObjAddr: 0x292C8, symBinAddr: 0x28CFC, symSize: 0x14 }
  - { offsetInCU: 0xF481, offset: 0x1223B7, size: 0x8, addend: 0x0, symName: __ZN14powersync_core9crud_vtab12VirtualTable15end_transaction17h9e9c6b5a1d741b82E, symObjAddr: 0x29C18, symBinAddr: 0x2964C, symSize: 0x21 }
  - { offsetInCU: 0xF55A, offset: 0x122490, size: 0x8, addend: 0x0, symName: __ZN14powersync_core9crud_vtab12VirtualTable13value_to_json17h15abc4975cea2077E, symObjAddr: 0x29DD2, symBinAddr: 0x29806, symSize: 0x25 }
  - { offsetInCU: 0x1E, offset: 0x122C58, size: 0x8, addend: 0x0, symName: '__ZN5alloc7raw_vec20RawVecInner$LT$A$GT$7reserve17hde16cbed9e13fa83E', symObjAddr: 0x2B671, symBinAddr: 0x2B0A5, symSize: 0x24 }
  - { offsetInCU: 0xC81, offset: 0x1238BB, size: 0x8, addend: 0x0, symName: '__ZN5serde2de5impls77_$LT$impl$u20$serde..de..Deserialize$u20$for$u20$alloc..vec..Vec$LT$T$GT$$GT$11deserialize17h0cf423a9e15510d7E', symObjAddr: 0x2BE17, symBinAddr: 0x2B84B, symSize: 0xE86 }
  - { offsetInCU: 0x1B6D, offset: 0x1247A7, size: 0x8, addend: 0x0, symName: '__ZN5serde2de5impls77_$LT$impl$u20$serde..de..Deserialize$u20$for$u20$alloc..vec..Vec$LT$T$GT$$GT$11deserialize17h288955cecb3a1c19E', symObjAddr: 0x2CC9D, symBinAddr: 0x2C6D1, symSize: 0xC6D }
  - { offsetInCU: 0x287C, offset: 0x1254B6, size: 0x8, addend: 0x0, symName: '__ZN5serde2de5impls77_$LT$impl$u20$serde..de..Deserialize$u20$for$u20$alloc..vec..Vec$LT$T$GT$$GT$11deserialize17h2a6f919c705b949bE', symObjAddr: 0x2D90A, symBinAddr: 0x2D33E, symSize: 0x28A }
  - { offsetInCU: 0x2BC2, offset: 0x1257FC, size: 0x8, addend: 0x0, symName: '__ZN5serde2de5impls77_$LT$impl$u20$serde..de..Deserialize$u20$for$u20$alloc..vec..Vec$LT$T$GT$$GT$11deserialize17h36c5511165751cdbE', symObjAddr: 0x2DB94, symBinAddr: 0x2D5C8, symSize: 0x203 }
  - { offsetInCU: 0x2E9B, offset: 0x125AD5, size: 0x8, addend: 0x0, symName: '__ZN5serde2de5impls77_$LT$impl$u20$serde..de..Deserialize$u20$for$u20$alloc..vec..Vec$LT$T$GT$$GT$11deserialize17h38e6d6fae61ab56aE', symObjAddr: 0x2DD97, symBinAddr: 0x2D7CB, symSize: 0x495 }
  - { offsetInCU: 0x34D7, offset: 0x126111, size: 0x8, addend: 0x0, symName: '__ZN5serde2de5impls77_$LT$impl$u20$serde..de..Deserialize$u20$for$u20$alloc..vec..Vec$LT$T$GT$$GT$11deserialize17h8b7193b03ee0596fE', symObjAddr: 0x2E22C, symBinAddr: 0x2DC60, symSize: 0x35C }
  - { offsetInCU: 0x3911, offset: 0x12654B, size: 0x8, addend: 0x0, symName: '__ZN5serde2de5impls77_$LT$impl$u20$serde..de..Deserialize$u20$for$u20$alloc..vec..Vec$LT$T$GT$$GT$11deserialize17h981f9f5715399653E', symObjAddr: 0x2E588, symBinAddr: 0x2DFBC, symSize: 0x11BC }
  - { offsetInCU: 0x5220, offset: 0x127E5A, size: 0x8, addend: 0x0, symName: '__ZN5serde2de5impls77_$LT$impl$u20$serde..de..Deserialize$u20$for$u20$alloc..vec..Vec$LT$T$GT$$GT$11deserialize17h9af32c474d11bce0E', symObjAddr: 0x2F744, symBinAddr: 0x2F178, symSize: 0x921 }
  - { offsetInCU: 0x5C53, offset: 0x12888D, size: 0x8, addend: 0x0, symName: '__ZN5serde2de5impls77_$LT$impl$u20$serde..de..Deserialize$u20$for$u20$alloc..vec..Vec$LT$T$GT$$GT$11deserialize17ha7c4c56ed1639e07E', symObjAddr: 0x30065, symBinAddr: 0x2FA99, symSize: 0x1C8 }
  - { offsetInCU: 0x5DFA, offset: 0x128A34, size: 0x8, addend: 0x0, symName: '__ZN5serde2de5impls77_$LT$impl$u20$serde..de..Deserialize$u20$for$u20$alloc..vec..Vec$LT$T$GT$$GT$11deserialize17haf60c7cacabe87c8E', symObjAddr: 0x3022D, symBinAddr: 0x2FC61, symSize: 0x2E9 }
  - { offsetInCU: 0x613C, offset: 0x128D76, size: 0x8, addend: 0x0, symName: '__ZN5serde2de5impls77_$LT$impl$u20$serde..de..Deserialize$u20$for$u20$alloc..vec..Vec$LT$T$GT$$GT$11deserialize17hee1a6753796a3aafE', symObjAddr: 0x30516, symBinAddr: 0x2FF4A, symSize: 0x8EE }
  - { offsetInCU: 0x6DB8, offset: 0x1299F2, size: 0x8, addend: 0x0, symName: '__ZN5serde2de5impls77_$LT$impl$u20$serde..de..Deserialize$u20$for$u20$alloc..vec..Vec$LT$T$GT$$GT$11deserialize17hfc2996b535910f77E', symObjAddr: 0x30E04, symBinAddr: 0x30838, symSize: 0xEF0 }
  - { offsetInCU: 0x81F9, offset: 0x12AE33, size: 0x8, addend: 0x0, symName: '__ZN5serde2de5impls60_$LT$impl$u20$serde..de..Deserialize$u20$for$u20$$RF$str$GT$11deserialize17h8bf4e811e5f49d26E', symObjAddr: 0x2BD29, symBinAddr: 0x2B75D, symSize: 0xEE }
  - { offsetInCU: 0x8468, offset: 0x12B0A2, size: 0x8, addend: 0x0, symName: '__ZN67_$LT$serde..de..impls..StrVisitor$u20$as$u20$serde..de..Visitor$GT$20visit_borrowed_bytes17hf859ea0c1478060aE', symObjAddr: 0x320D6, symBinAddr: 0x3172A, symSize: 0x6A }
  - { offsetInCU: 0x8518, offset: 0x12B152, size: 0x8, addend: 0x0, symName: '__ZN5serde2de5impls57_$LT$impl$u20$serde..de..Deserialize$u20$for$u20$bool$GT$11deserialize17hdf3c7dfb366e2610E', symObjAddr: 0x2BC60, symBinAddr: 0x2B694, symSize: 0xC9 }
  - { offsetInCU: 0x86E3, offset: 0x12B31D, size: 0x8, addend: 0x0, symName: '__ZN70_$LT$serde..de..impls..StringVisitor$u20$as$u20$serde..de..Visitor$GT$11visit_bytes17h61d9bbacac21e3dcE', symObjAddr: 0x32314, symBinAddr: 0x31968, symSize: 0x84 }
  - { offsetInCU: 0x922A, offset: 0x12BE64, size: 0x8, addend: 0x0, symName: __ZN5serde2de7Visitor11visit_bytes17h5398cb0962c9bf40E, symObjAddr: 0x31CF4, symBinAddr: 0x432D4, symSize: 0x3C }
  - { offsetInCU: 0x927B, offset: 0x12BEB5, size: 0x8, addend: 0x0, symName: __ZN5serde2de7Visitor11visit_bytes17hc03c2a91afabf74cE, symObjAddr: 0x31D30, symBinAddr: 0x43310, symSize: 0x43 }
  - { offsetInCU: 0x92CB, offset: 0x12BF05, size: 0x8, addend: 0x0, symName: __ZN5serde2de7Visitor11visit_bytes17hc21b2bdb592bd084E, symObjAddr: 0x31D73, symBinAddr: 0x43353, symSize: 0x43 }
  - { offsetInCU: 0x931B, offset: 0x12BF55, size: 0x8, addend: 0x0, symName: __ZN5serde2de7Visitor11visit_bytes17hdc9f018a9df0d17dE, symObjAddr: 0x31DB6, symBinAddr: 0x43396, symSize: 0x43 }
  - { offsetInCU: 0x936B, offset: 0x12BFA5, size: 0x8, addend: 0x0, symName: __ZN5serde2de7Visitor11visit_bytes17hf2c97ccd1a4bf39cE, symObjAddr: 0x31DF9, symBinAddr: 0x433D9, symSize: 0x36 }
  - { offsetInCU: 0x93BC, offset: 0x12BFF6, size: 0x8, addend: 0x0, symName: __ZN5serde2de7Visitor9visit_i6417h3f7fe94bcf66a42bE, symObjAddr: 0x31E2F, symBinAddr: 0x4340F, symSize: 0x3F }
  - { offsetInCU: 0x940D, offset: 0x12C047, size: 0x8, addend: 0x0, symName: __ZN5serde2de7Visitor9visit_i6417hca0e340942f8c28eE, symObjAddr: 0x31E6E, symBinAddr: 0x4344E, symSize: 0x3F }
  - { offsetInCU: 0x945D, offset: 0x12C097, size: 0x8, addend: 0x0, symName: __ZN5serde2de7Visitor9visit_i6417he512e9f9cef72d96E, symObjAddr: 0x31EAD, symBinAddr: 0x4348D, symSize: 0x3F }
  - { offsetInCU: 0x94AD, offset: 0x12C0E7, size: 0x8, addend: 0x0, symName: __ZN5serde2de7Visitor9visit_i6417hed5e51fc204d8046E, symObjAddr: 0x31EEC, symBinAddr: 0x434CC, symSize: 0x36 }
  - { offsetInCU: 0x94FE, offset: 0x12C138, size: 0x8, addend: 0x0, symName: __ZN5serde2de7Visitor9visit_i6417hae3de08bc179e972E, symObjAddr: 0x31F22, symBinAddr: 0x43502, symSize: 0x3F }
  - { offsetInCU: 0x954E, offset: 0x12C188, size: 0x8, addend: 0x0, symName: __ZN5serde2de7Visitor9visit_str17h14c205a7abeec295E, symObjAddr: 0x31F61, symBinAddr: 0x43541, symSize: 0x3C }
  - { offsetInCU: 0x959F, offset: 0x12C1D9, size: 0x8, addend: 0x0, symName: __ZN5serde2de7Visitor9visit_str17h34005d6c647bba77E, symObjAddr: 0x31F9D, symBinAddr: 0x4357D, symSize: 0x43 }
  - { offsetInCU: 0x95EF, offset: 0x12C229, size: 0x8, addend: 0x0, symName: __ZN5serde2de7Visitor9visit_str17h684daab973f09dd0E, symObjAddr: 0x31FE0, symBinAddr: 0x435C0, symSize: 0x36 }
  - { offsetInCU: 0x9640, offset: 0x12C27A, size: 0x8, addend: 0x0, symName: __ZN5serde2de7Visitor9visit_str17hc12b0aa372df5086E, symObjAddr: 0x32016, symBinAddr: 0x435F6, symSize: 0x43 }
  - { offsetInCU: 0x9690, offset: 0x12C2CA, size: 0x8, addend: 0x0, symName: __ZN5serde2de7Visitor9visit_str17hd15eba9f972ec674E, symObjAddr: 0x32059, symBinAddr: 0x43639, symSize: 0x3A }
  - { offsetInCU: 0x96E1, offset: 0x12C31B, size: 0x8, addend: 0x0, symName: __ZN5serde2de7Visitor9visit_str17hfa3f3e3710f52deaE, symObjAddr: 0x32093, symBinAddr: 0x43673, symSize: 0x43 }
  - { offsetInCU: 0x9C6B, offset: 0x12C8A5, size: 0x8, addend: 0x0, symName: '__ZN41_$LT$T$u20$as$u20$serde..de..Expected$GT$3fmt17h002eaee18d815bf9E', symObjAddr: 0x2BB8E, symBinAddr: 0x2B5C2, symSize: 0x23 }
  - { offsetInCU: 0x9CE4, offset: 0x12C91E, size: 0x8, addend: 0x0, symName: '__ZN41_$LT$T$u20$as$u20$serde..de..Expected$GT$3fmt17h2eb997879b0c0f6bE', symObjAddr: 0x2BBB1, symBinAddr: 0x2B5E5, symSize: 0x23 }
  - { offsetInCU: 0x9D5D, offset: 0x12C997, size: 0x8, addend: 0x0, symName: '__ZN41_$LT$T$u20$as$u20$serde..de..Expected$GT$3fmt17h476036c0319801d4E', symObjAddr: 0x2BBD4, symBinAddr: 0x2B608, symSize: 0x23 }
  - { offsetInCU: 0x9DD6, offset: 0x12CA10, size: 0x8, addend: 0x0, symName: '__ZN41_$LT$T$u20$as$u20$serde..de..Expected$GT$3fmt17h60e055970459244dE', symObjAddr: 0x2BBF7, symBinAddr: 0x2B62B, symSize: 0x23 }
  - { offsetInCU: 0x9E4E, offset: 0x12CA88, size: 0x8, addend: 0x0, symName: '__ZN41_$LT$T$u20$as$u20$serde..de..Expected$GT$3fmt17hb04aafedf5f226a8E', symObjAddr: 0x2BC1A, symBinAddr: 0x2B64E, symSize: 0x23 }
  - { offsetInCU: 0x9EC6, offset: 0x12CB00, size: 0x8, addend: 0x0, symName: '__ZN41_$LT$T$u20$as$u20$serde..de..Expected$GT$3fmt17he82416e9b336883dE', symObjAddr: 0x2BC3D, symBinAddr: 0x2B671, symSize: 0x23 }
  - { offsetInCU: 0xA83B, offset: 0x12D475, size: 0x8, addend: 0x0, symName: '__ZN70_$LT$alloc..vec..Vec$LT$T$C$A$GT$$u20$as$u20$core..ops..drop..Drop$GT$4drop17h6b402e56be9f5fceE', symObjAddr: 0x2B724, symBinAddr: 0x2B158, symSize: 0x37 }
  - { offsetInCU: 0xA8FC, offset: 0x12D536, size: 0x8, addend: 0x0, symName: '__ZN70_$LT$alloc..vec..Vec$LT$T$C$A$GT$$u20$as$u20$core..ops..drop..Drop$GT$4drop17h4db602d5d2b70aabE', symObjAddr: 0x2B75B, symBinAddr: 0x2B18F, symSize: 0x3B }
  - { offsetInCU: 0xAA07, offset: 0x12D641, size: 0x8, addend: 0x0, symName: '__ZN70_$LT$alloc..vec..Vec$LT$T$C$A$GT$$u20$as$u20$core..ops..drop..Drop$GT$4drop17h624f189f18ede8f3E', symObjAddr: 0x2B796, symBinAddr: 0x2B1CA, symSize: 0x3B }
  - { offsetInCU: 0xAB12, offset: 0x12D74C, size: 0x8, addend: 0x0, symName: '__ZN70_$LT$alloc..vec..Vec$LT$T$C$A$GT$$u20$as$u20$core..ops..drop..Drop$GT$4drop17hdeb7c0f317bbc083E', symObjAddr: 0x2B866, symBinAddr: 0x2B29A, symSize: 0x2E }
  - { offsetInCU: 0xAB6A, offset: 0x12D7A4, size: 0x8, addend: 0x0, symName: '__ZN70_$LT$alloc..vec..Vec$LT$T$C$A$GT$$u20$as$u20$core..ops..drop..Drop$GT$4drop17h1e59fc36db4ae05cE', symObjAddr: 0x2B919, symBinAddr: 0x2B34D, symSize: 0x2E }
  - { offsetInCU: 0xABD7, offset: 0x12D811, size: 0x8, addend: 0x0, symName: '__ZN70_$LT$alloc..vec..Vec$LT$T$C$A$GT$$u20$as$u20$core..ops..drop..Drop$GT$4drop17h66c0ba6b19ac2335E', symObjAddr: 0x2B947, symBinAddr: 0x2B37B, symSize: 0x6E }
  - { offsetInCU: 0xACCC, offset: 0x12D906, size: 0x8, addend: 0x0, symName: '__ZN70_$LT$alloc..vec..Vec$LT$T$C$A$GT$$u20$as$u20$core..ops..drop..Drop$GT$4drop17h3c71e1b1cee6b450E', symObjAddr: 0x2B9B5, symBinAddr: 0x2B3E9, symSize: 0x2E }
  - { offsetInCU: 0xAD6E, offset: 0x12D9A8, size: 0x8, addend: 0x0, symName: '__ZN70_$LT$alloc..vec..Vec$LT$T$C$A$GT$$u20$as$u20$core..ops..drop..Drop$GT$4drop17h8304aebf7536385dE', symObjAddr: 0x2BABF, symBinAddr: 0x2B4F3, symSize: 0x26 }
  - { offsetInCU: 0xADBC, offset: 0x12D9F6, size: 0x8, addend: 0x0, symName: '__ZN70_$LT$alloc..vec..Vec$LT$T$C$A$GT$$u20$as$u20$core..ops..drop..Drop$GT$4drop17hc72df8360f1bbf8cE', symObjAddr: 0x2BAE5, symBinAddr: 0x2B519, symSize: 0x40 }
  - { offsetInCU: 0xAE7F, offset: 0x12DAB9, size: 0x8, addend: 0x0, symName: '__ZN70_$LT$alloc..vec..Vec$LT$T$C$A$GT$$u20$as$u20$core..ops..drop..Drop$GT$4drop17he86f5f2bf422b005E', symObjAddr: 0x2BB25, symBinAddr: 0x2B559, symSize: 0x36 }
  - { offsetInCU: 0xAF26, offset: 0x12DB60, size: 0x8, addend: 0x0, symName: '__ZN70_$LT$alloc..vec..Vec$LT$T$C$A$GT$$u20$as$u20$core..ops..drop..Drop$GT$4drop17h8c0bcc909ee708bdE', symObjAddr: 0x2BB5B, symBinAddr: 0x2B58F, symSize: 0x33 }
  - { offsetInCU: 0xAF92, offset: 0x12DBCC, size: 0x8, addend: 0x0, symName: '__ZN70_$LT$alloc..vec..Vec$LT$T$C$A$GT$$u20$as$u20$core..ops..drop..Drop$GT$4drop17h106717a2106c839cE', symObjAddr: 0x32140, symBinAddr: 0x31794, symSize: 0x28 }
  - { offsetInCU: 0xB058, offset: 0x12DC92, size: 0x8, addend: 0x0, symName: '__ZN70_$LT$alloc..vec..Vec$LT$T$C$A$GT$$u20$as$u20$core..ops..drop..Drop$GT$4drop17hfd00b4e4a40c1f18E', symObjAddr: 0x32283, symBinAddr: 0x318D7, symSize: 0x28 }
  - { offsetInCU: 0xB11E, offset: 0x12DD58, size: 0x8, addend: 0x0, symName: '__ZN70_$LT$alloc..vec..Vec$LT$T$C$A$GT$$u20$as$u20$core..ops..drop..Drop$GT$4drop17h316cb2bc19baa684E', symObjAddr: 0x322AB, symBinAddr: 0x318FF, symSize: 0x3B }
  - { offsetInCU: 0xB229, offset: 0x12DE63, size: 0x8, addend: 0x0, symName: '__ZN70_$LT$alloc..vec..Vec$LT$T$C$A$GT$$u20$as$u20$core..ops..drop..Drop$GT$4drop17hd89d7e14ddf62fdcE', symObjAddr: 0x322E6, symBinAddr: 0x3193A, symSize: 0x2E }
  - { offsetInCU: 0xED43, offset: 0x13197D, size: 0x8, addend: 0x0, symName: '__ZN4core3ptr78drop_in_place$LT$core..option..Option$LT$alloc..borrow..Cow$LT$str$GT$$GT$$GT$17h6e75cf7d6b397974E.1561', symObjAddr: 0x2B84B, symBinAddr: 0x2B27F, symSize: 0x1B }
  - { offsetInCU: 0xEDDC, offset: 0x131A16, size: 0x8, addend: 0x0, symName: '__ZN4core3ptr91drop_in_place$LT$core..option..Option$LT$powersync_core..sync..line..BucketChecksum$GT$$GT$17ha164505afac6123eE', symObjAddr: 0x2B8FD, symBinAddr: 0x2B331, symSize: 0x1C }
  - { offsetInCU: 0xEF14, offset: 0x131B4E, size: 0x8, addend: 0x0, symName: '__ZN4core3ptr87drop_in_place$LT$core..option..Option$LT$powersync_core..sync..line..OplogEntry$GT$$GT$17hcafec26a410f5bcfE', symObjAddr: 0x2BA4C, symBinAddr: 0x2B480, symSize: 0x1B }
  - { offsetInCU: 0xEF81, offset: 0x131BBB, size: 0x8, addend: 0x0, symName: '__ZN4core3ptr59drop_in_place$LT$powersync_core..sync..line..OplogEntry$GT$17hf9c25bf07a6ed3afE.1581', symObjAddr: 0x2BA67, symBinAddr: 0x2B49B, symSize: 0x58 }
  - { offsetInCU: 0xF2B3, offset: 0x131EED, size: 0x8, addend: 0x0, symName: '__ZN4core3ptr108drop_in_place$LT$$LP$serde..__private..de..content..Content$C$serde..__private..de..content..Content$RP$$GT$17h2bc6476c8b1d10beE', symObjAddr: 0x32168, symBinAddr: 0x317BC, symSize: 0x20 }
  - { offsetInCU: 0xF35F, offset: 0x131F99, size: 0x8, addend: 0x0, symName: '__ZN4core3ptr59drop_in_place$LT$serde..__private..de..content..Content$GT$17h7fc5c16f4199828dE.1857', symObjAddr: 0x32188, symBinAddr: 0x317DC, symSize: 0xDC }
  - { offsetInCU: 0xF3F7, offset: 0x132031, size: 0x8, addend: 0x0, symName: '__ZN4core3ptr84drop_in_place$LT$alloc..boxed..Box$LT$serde..__private..de..content..Content$GT$$GT$17h474858d645a065d5E.1858', symObjAddr: 0x32264, symBinAddr: 0x318B8, symSize: 0x1F }
  - { offsetInCU: 0x12223, offset: 0x134E5D, size: 0x8, addend: 0x0, symName: '__ZN115_$LT$core..iter..adapters..filter_map..FilterMap$LT$I$C$F$GT$$u20$as$u20$core..iter..traits..iterator..Iterator$GT$4next17h0c443a9a77d774b9E', symObjAddr: 0x2B6EE, symBinAddr: 0x2B122, symSize: 0x36 }
  - { offsetInCU: 0x14BA6, offset: 0x1377E0, size: 0x8, addend: 0x0, symName: '__ZN5alloc7raw_vec20RawVecInner$LT$A$GT$7reserve17hde16cbed9e13fa83E', symObjAddr: 0x2B671, symBinAddr: 0x2B0A5, symSize: 0x24 }
  - { offsetInCU: 0x14C57, offset: 0x137891, size: 0x8, addend: 0x0, symName: '__ZN5alloc7raw_vec20RawVecInner$LT$A$GT$16with_capacity_in17he74f50306fe84c20E.1539', symObjAddr: 0x2B695, symBinAddr: 0x2B0C9, symSize: 0x3E }
  - { offsetInCU: 0x14D16, offset: 0x137950, size: 0x8, addend: 0x0, symName: '__ZN5alloc3vec16Vec$LT$T$C$A$GT$7reserve17h867ffd0c6f1c5589E', symObjAddr: 0x2B6D3, symBinAddr: 0x2B107, symSize: 0x1B }
  - { offsetInCU: 0x14E85, offset: 0x137ABF, size: 0x8, addend: 0x0, symName: '__ZN5alloc3vec12Vec$LT$T$GT$13with_capacity17hd3eba4dbb6f35037E', symObjAddr: 0x2B7D1, symBinAddr: 0x2B205, symSize: 0x26 }
  - { offsetInCU: 0x14FB0, offset: 0x137BEA, size: 0x8, addend: 0x0, symName: '__ZN5alloc3vec16Vec$LT$T$C$A$GT$4push17h5f32c56922caf216E', symObjAddr: 0x2B7F7, symBinAddr: 0x2B22B, symSize: 0x54 }
  - { offsetInCU: 0x15180, offset: 0x137DBA, size: 0x8, addend: 0x0, symName: '__ZN5alloc3vec12Vec$LT$T$GT$13with_capacity17hc2d0eaf92d898daeE', symObjAddr: 0x2B894, symBinAddr: 0x2B2C8, symSize: 0x26 }
  - { offsetInCU: 0x151FD, offset: 0x137E37, size: 0x8, addend: 0x0, symName: '__ZN5alloc3vec16Vec$LT$T$C$A$GT$4push17he39b607b6b4e104eE', symObjAddr: 0x2B8BA, symBinAddr: 0x2B2EE, symSize: 0x43 }
  - { offsetInCU: 0x153A9, offset: 0x137FE3, size: 0x8, addend: 0x0, symName: '__ZN5alloc3vec12Vec$LT$T$GT$13with_capacity17hdf1eac743a27ad0dE', symObjAddr: 0x2B9E3, symBinAddr: 0x2B417, symSize: 0x26 }
  - { offsetInCU: 0x15419, offset: 0x138053, size: 0x8, addend: 0x0, symName: '__ZN5alloc3vec16Vec$LT$T$C$A$GT$4push17h9793e1ee77964c29E', symObjAddr: 0x2BA09, symBinAddr: 0x2B43D, symSize: 0x43 }
  - { offsetInCU: 0x1E, offset: 0x139671, size: 0x8, addend: 0x0, symName: '__ZN5serde9__private2de7content28ContentDeserializer$LT$E$GT$12invalid_type17hd4296aaa31692a22E', symObjAddr: 0x32398, symBinAddr: 0x436B8, symSize: 0x158 }
  - { offsetInCU: 0x5E6, offset: 0x139C39, size: 0x8, addend: 0x0, symName: '__ZN84_$LT$serde..__private..de..content..ContentVisitor$u20$as$u20$serde..de..Visitor$GT$9visit_str17h39e528ad300b31fbE', symObjAddr: 0x32E47, symBinAddr: 0x32343, symSize: 0x5D }
  - { offsetInCU: 0x1028, offset: 0x13A67B, size: 0x8, addend: 0x0, symName: '__ZN4core3ptr59drop_in_place$LT$serde..__private..de..content..Content$GT$17h7fc5c16f4199828dE.1918', symObjAddr: 0x324F0, symBinAddr: 0x319EC, symSize: 0xA4 }
  - { offsetInCU: 0x1077, offset: 0x13A6CA, size: 0x8, addend: 0x0, symName: '__ZN4core3ptr131drop_in_place$LT$alloc..vec..Vec$LT$$LP$serde..__private..de..content..Content$C$serde..__private..de..content..Content$RP$$GT$$GT$17hf1891dec420d5011E', symObjAddr: 0x32594, symBinAddr: 0x31A90, symSize: 0x20 }
  - { offsetInCU: 0x10C6, offset: 0x13A719, size: 0x8, addend: 0x0, symName: '__ZN4core3ptr84drop_in_place$LT$alloc..boxed..Box$LT$serde..__private..de..content..Content$GT$$GT$17h474858d645a065d5E.1919', symObjAddr: 0x325B4, symBinAddr: 0x31AB0, symSize: 0x1F }
  - { offsetInCU: 0x11CD, offset: 0x13A820, size: 0x8, addend: 0x0, symName: '__ZN4core3ptr82drop_in_place$LT$alloc..vec..Vec$LT$serde..__private..de..content..Content$GT$$GT$17ha0436d57d9b3be5eE', symObjAddr: 0x325D3, symBinAddr: 0x31ACF, symSize: 0x20 }
  - { offsetInCU: 0x27F3, offset: 0x13BE46, size: 0x8, addend: 0x0, symName: __ZN4core5slice4sort6shared9smallsort11insert_tail17h4754becd57745258E, symObjAddr: 0x328D9, symBinAddr: 0x31DD5, symSize: 0x72 }
  - { offsetInCU: 0x293B, offset: 0x13BF8E, size: 0x8, addend: 0x0, symName: __ZN4core5slice4sort6shared9smallsort11insert_tail17h9e3e3cfe3bdea6ccE, symObjAddr: 0x3294B, symBinAddr: 0x31E47, symSize: 0x9F }
  - { offsetInCU: 0x2AA0, offset: 0x13C0F3, size: 0x8, addend: 0x0, symName: __ZN4core5slice4sort6shared9smallsort12sort4_stable17h18d64c30e45adda3E, symObjAddr: 0x329EA, symBinAddr: 0x31EE6, symSize: 0x108 }
  - { offsetInCU: 0x2D86, offset: 0x13C3D9, size: 0x8, addend: 0x0, symName: __ZN4core5slice4sort6shared9smallsort12sort4_stable17hbecec461a3359ff1E, symObjAddr: 0x32AF2, symBinAddr: 0x31FEE, symSize: 0x16F }
  - { offsetInCU: 0x323F, offset: 0x13C892, size: 0x8, addend: 0x0, symName: __ZN4core5slice4sort6shared9smallsort12sort8_stable17h0a4a7761ed14fff4E, symObjAddr: 0x32C61, symBinAddr: 0x3215D, symSize: 0x43 }
  - { offsetInCU: 0x33D2, offset: 0x13CA25, size: 0x8, addend: 0x0, symName: __ZN4core5slice4sort6shared9smallsort19bidirectional_merge17h2ddd3268257adbf9E, symObjAddr: 0x32CA4, symBinAddr: 0x321A0, symSize: 0x11A }
  - { offsetInCU: 0x3CF9, offset: 0x13D34C, size: 0x8, addend: 0x0, symName: __ZN4core5slice4sort6shared5pivot11median3_rec17h1e8d5ed34b64c3a5E, symObjAddr: 0x326D0, symBinAddr: 0x31BCC, symSize: 0xEA }
  - { offsetInCU: 0x3E61, offset: 0x13D4B4, size: 0x8, addend: 0x0, symName: __ZN4core5slice4sort6shared5pivot11median3_rec17hb977aea39a4e2fcbE, symObjAddr: 0x327D5, symBinAddr: 0x31CD1, symSize: 0x104 }
  - { offsetInCU: 0x4793, offset: 0x13DDE6, size: 0x8, addend: 0x0, symName: '__ZN4core5slice29_$LT$impl$u20$$u5b$T$u5d$$GT$15copy_from_slice17ha8693c27ac15a3e4E', symObjAddr: 0x32E25, symBinAddr: 0x32321, symSize: 0x22 }
  - { offsetInCU: 0x4C76, offset: 0x13E2C9, size: 0x8, addend: 0x0, symName: '__ZN99_$LT$core..array..iter..IntoIter$LT$T$C$_$GT$$u20$as$u20$core..iter..traits..iterator..Iterator$GT$4next17haf6eaa707e5dc1c6E', symObjAddr: 0x32DBE, symBinAddr: 0x322BA, symSize: 0x29 }
  - { offsetInCU: 0x500D, offset: 0x13E660, size: 0x8, addend: 0x0, symName: '__ZN104_$LT$core..iter..adapters..cloned..Cloned$LT$I$GT$$u20$as$u20$core..iter..traits..iterator..Iterator$GT$4next17h7fdb283aa53439cbE', symObjAddr: 0x325F3, symBinAddr: 0x31AEF, symSize: 0x40 }
  - { offsetInCU: 0x5388, offset: 0x13E9DB, size: 0x8, addend: 0x0, symName: '__ZN44_$LT$$RF$T$u20$as$u20$core..fmt..Display$GT$3fmt17habf737b265e19e6eE', symObjAddr: 0x32633, symBinAddr: 0x31B2F, symSize: 0x9D }
  - { offsetInCU: 0x6127, offset: 0x13F77A, size: 0x8, addend: 0x0, symName: '__ZN5alloc5slice29_$LT$impl$u20$$u5b$T$u5d$$GT$11sort_by_key28_$u7b$$u7b$closure$u7d$$u7d$17h10e6360ea89e3ca6E.1937', symObjAddr: 0x327BA, symBinAddr: 0x31CB6, symSize: 0x1B }
  - { offsetInCU: 0x8039, offset: 0x14168C, size: 0x8, addend: 0x0, symName: '__ZN5serde9__private2de7content28ContentDeserializer$LT$E$GT$12invalid_type17hd4296aaa31692a22E', symObjAddr: 0x32398, symBinAddr: 0x436B8, symSize: 0x158 }
  - { offsetInCU: 0x843F, offset: 0x141A92, size: 0x8, addend: 0x0, symName: '__ZN5alloc7raw_vec20RawVecInner$LT$A$GT$16with_capacity_in17he74f50306fe84c20E.1973', symObjAddr: 0x32DE7, symBinAddr: 0x322E3, symSize: 0x3E }
  - { offsetInCU: 0x1E, offset: 0x141C1B, size: 0x8, addend: 0x0, symName: __ZN5alloc5alloc15exchange_malloc17h238ed74f6b8dc009E.2020, symObjAddr: 0x32EA4, symBinAddr: 0x323A0, symSize: 0x1B }
  - { offsetInCU: 0x1C1, offset: 0x141DBE, size: 0x8, addend: 0x0, symName: '__ZN14powersync_core4sync14streaming_sync22StreamingSyncIteration3run28_$u7b$$u7b$closure$u7d$$u7d$17h8f6680f109eb1093E', symObjAddr: 0x32F05, symBinAddr: 0x32401, symSize: 0x4677 }
  - { offsetInCU: 0x8113, offset: 0x149D10, size: 0x8, addend: 0x0, symName: '__ZN92_$LT$powersync_core..sync..streaming_sync..OwnedCheckpoint$u20$as$u20$core..clone..Clone$GT$5clone17h29bdb3cc96279c0cE', symObjAddr: 0x385CD, symBinAddr: 0x37AC9, symSize: 0x5E }
  - { offsetInCU: 0x8B24, offset: 0x14A721, size: 0x8, addend: 0x0, symName: __ZN14powersync_core4sync9interface8register7control17hf63d21de26e52e9cE, symObjAddr: 0x39688, symBinAddr: 0x38B84, symSize: 0x2288 }
  - { offsetInCU: 0xB7D4, offset: 0x14D3D1, size: 0x8, addend: 0x0, symName: __ZN14powersync_core4sync9interface8register7destroy17hcd104eb67c52bf49E, symObjAddr: 0x3B910, symBinAddr: 0x3AE0C, symSize: 0x29 }
  - { offsetInCU: 0xBEAF, offset: 0x14DAAC, size: 0x8, addend: 0x0, symName: __ZN14powersync_core5state8register4func17h82b1d533b2ba1600E, symObjAddr: 0x3962A, symBinAddr: 0x38B26, symSize: 0x40 }
  - { offsetInCU: 0xC1E6, offset: 0x14DDE3, size: 0x8, addend: 0x0, symName: __ZN14powersync_core15operations_vtab6MODULE17h1d2d6912665dd44eE, symObjAddr: 0x45038, symBinAddr: 0x518F8, symSize: 0x0 }
  - { offsetInCU: 0xC27B, offset: 0x14DE78, size: 0x8, addend: 0x0, symName: __ZN14powersync_core15operations_vtab7connect17h7d255c59657fca10E, symObjAddr: 0x386ED, symBinAddr: 0x37BE9, symSize: 0x72 }
  - { offsetInCU: 0xC3A5, offset: 0x14DFA2, size: 0x8, addend: 0x0, symName: __ZN14powersync_core15operations_vtab10disconnect17hb7edc3b176f74e24E, symObjAddr: 0x3875F, symBinAddr: 0x37C5B, symSize: 0xD }
  - { offsetInCU: 0xC4B4, offset: 0x14E0B1, size: 0x8, addend: 0x0, symName: __ZN14powersync_core15operations_vtab6update17h54adaa231a0efc55E, symObjAddr: 0x3876C, symBinAddr: 0x37C68, symSize: 0xEBE }
  - { offsetInCU: 0xE480, offset: 0x15007D, size: 0x8, addend: 0x0, symName: __ZN5alloc5alloc15exchange_malloc17h238ed74f6b8dc009E.2020, symObjAddr: 0x32EA4, symBinAddr: 0x323A0, symSize: 0x1B }
  - { offsetInCU: 0xEB26, offset: 0x150723, size: 0x8, addend: 0x0, symName: '__ZN86_$LT$alloc..vec..into_iter..IntoIter$LT$T$C$A$GT$$u20$as$u20$core..ops..drop..Drop$GT$4drop17h6647ff2a1d68aebfE', symObjAddr: 0x38677, symBinAddr: 0x37B73, symSize: 0x55 }
  - { offsetInCU: 0x10D28, offset: 0x152925, size: 0x8, addend: 0x0, symName: '__ZN4core3ptr115drop_in_place$LT$powersync_core..sync..streaming_sync..StreamingSyncIteration..run..$u7b$$u7b$closure$u7d$$u7d$$GT$17he0b019e21b3f6f75E', symObjAddr: 0x32EBF, symBinAddr: 0x323BB, symSize: 0x46 }
  - { offsetInCU: 0x10E6A, offset: 0x152A67, size: 0x8, addend: 0x0, symName: '__ZN4core3ptr69drop_in_place$LT$powersync_core..sync..streaming_sync..SyncTarget$GT$17haee9b5f13d1371eeE', symObjAddr: 0x375BF, symBinAddr: 0x36ABB, symSize: 0x1D }
  - { offsetInCU: 0x10ED6, offset: 0x152AD3, size: 0x8, addend: 0x0, symName: '__ZN4core3ptr102drop_in_place$LT$core..option..Option$LT$powersync_core..sync..streaming_sync..OwnedCheckpoint$GT$$GT$17hf3ae61dfc9e9abfcE', symObjAddr: 0x375DC, symBinAddr: 0x36AD8, symSize: 0x15 }
  - { offsetInCU: 0x10F42, offset: 0x152B3F, size: 0x8, addend: 0x0, symName: '__ZN4core3ptr75drop_in_place$LT$powersync_core..sync..storage_adapter..SyncLocalResult$GT$17h72882cba58876d0aE', symObjAddr: 0x375F1, symBinAddr: 0x36AED, symSize: 0x1B }
  - { offsetInCU: 0x10FED, offset: 0x152BEA, size: 0x8, addend: 0x0, symName: '__ZN4core3ptr81drop_in_place$LT$powersync_core..sync..streaming_sync..StreamingSyncIteration$GT$17h57d8e85700b0f7e5E', symObjAddr: 0x376BA, symBinAddr: 0x36BB6, symSize: 0x58 }
  - { offsetInCU: 0x11191, offset: 0x152D8E, size: 0x8, addend: 0x0, symName: '__ZN4core3ptr86drop_in_place$LT$core..option..Option$LT$powersync_core..error..PowerSyncError$GT$$GT$17h3847075f338ebae5E', symObjAddr: 0x37712, symBinAddr: 0x36C0E, symSize: 0x11 }
  - { offsetInCU: 0x11258, offset: 0x152E55, size: 0x8, addend: 0x0, symName: '__ZN4core3ptr58drop_in_place$LT$powersync_core..error..PowerSyncError$GT$17h46fe98a5095a9dd0E.2023', symObjAddr: 0x37723, symBinAddr: 0x36C1F, symSize: 0xB1 }
  - { offsetInCU: 0x11410, offset: 0x15300D, size: 0x8, addend: 0x0, symName: '__ZN4core3ptr81drop_in_place$LT$alloc..sync..Arc$LT$powersync_core..state..DatabaseState$GT$$GT$17h6982b9688849be6cE', symObjAddr: 0x377D4, symBinAddr: 0x36CD0, symSize: 0x18 }
  - { offsetInCU: 0x115E3, offset: 0x1531E0, size: 0x8, addend: 0x0, symName: '__ZN4core3ptr69drop_in_place$LT$powersync_core..sync..interface..StartSyncStream$GT$17h0e5771b77140bd55E.2028', symObjAddr: 0x377EC, symBinAddr: 0x36CE8, symSize: 0x55 }
  - { offsetInCU: 0x11726, offset: 0x153323, size: 0x8, addend: 0x0, symName: '__ZN4core3ptr102drop_in_place$LT$core..option..Option$LT$powersync_core..sync..checkpoint..OwnedBucketChecksum$GT$$GT$17h8b573b25be792da6E', symObjAddr: 0x37841, symBinAddr: 0x36D3D, symSize: 0x1C }
  - { offsetInCU: 0x1181C, offset: 0x153419, size: 0x8, addend: 0x0, symName: '__ZN4core3ptr76drop_in_place$LT$powersync_core..sync..storage_adapter..CheckpointResult$GT$17h63081de616f422a5E', symObjAddr: 0x3862B, symBinAddr: 0x37B27, symSize: 0x29 }
  - { offsetInCU: 0x11963, offset: 0x153560, size: 0x8, addend: 0x0, symName: '__ZN4core3ptr70drop_in_place$LT$powersync_core..sync..streaming_sync..ClientState$GT$17hf57ac03a4bf9c334E', symObjAddr: 0x3B939, symBinAddr: 0x3AE35, symSize: 0x11 }
  - { offsetInCU: 0x119CD, offset: 0x1535CA, size: 0x8, addend: 0x0, symName: '__ZN4core3ptr78drop_in_place$LT$powersync_core..sync..streaming_sync..SyncIterationHandle$GT$17h2e6c858ba196b0dcE', symObjAddr: 0x3B94A, symBinAddr: 0x3AE46, symSize: 0x32 }
  - { offsetInCU: 0x11ACD, offset: 0x1536CA, size: 0x8, addend: 0x0, symName: '__ZN4core3ptr88drop_in_place$LT$alloc..vec..Vec$LT$powersync_core..sync..interface..Instruction$GT$$GT$17hce47b985b0f8d7f5E', symObjAddr: 0x3BA45, symBinAddr: 0x3AF41, symSize: 0xCD }
  - { offsetInCU: 0x11DD0, offset: 0x1539CD, size: 0x8, addend: 0x0, symName: '__ZN4core3ptr70drop_in_place$LT$powersync_core..sync..streaming_sync..ActiveEvent$GT$17h95f091d2fd377757E', symObjAddr: 0x3BBC5, symBinAddr: 0x3B0C1, symSize: 0x24 }
  - { offsetInCU: 0x160F2, offset: 0x157CEF, size: 0x8, addend: 0x0, symName: __ZN4core3ops8function6FnOnce9call_once17hd8cab3d17c7bb9b5E, symObjAddr: 0x3BBE9, symBinAddr: 0x3B0E5, symSize: 0xF }
  - { offsetInCU: 0x16130, offset: 0x157D2D, size: 0x8, addend: 0x0, symName: __ZN4core3ops8function6FnOnce9call_once17h34198bd3d590f913E, symObjAddr: 0x3BBF8, symBinAddr: 0x3B0F4, symSize: 0x6 }
  - { offsetInCU: 0x166AA, offset: 0x1582A7, size: 0x8, addend: 0x0, symName: '__ZN100_$LT$$BP$mut$u20$sqlite3_capi..bindings..sqlite3_context$u20$as$u20$sqlite_nostd..nostd..Context$GT$9user_data17h01783a021142df88E', symObjAddr: 0x3966A, symBinAddr: 0x38B66, symSize: 0x1E }
  - { offsetInCU: 0x166D7, offset: 0x1582D4, size: 0x8, addend: 0x0, symName: '__ZN100_$LT$$BP$mut$u20$sqlite3_capi..bindings..sqlite3_context$u20$as$u20$sqlite_nostd..nostd..Context$GT$9user_data17h01783a021142df88E', symObjAddr: 0x3966A, symBinAddr: 0x38B66, symSize: 0x1E }
  - { offsetInCU: 0x16C73, offset: 0x158870, size: 0x8, addend: 0x0, symName: '__ZN93_$LT$serde_json..ser..Compound$LT$W$C$F$GT$$u20$as$u20$serde..ser..SerializeStructVariant$GT$3end17h4b34c7238b37b511E', symObjAddr: 0x3BC61, symBinAddr: 0x3B15D, symSize: 0x33 }
  - { offsetInCU: 0x16F27, offset: 0x158B24, size: 0x8, addend: 0x0, symName: '__ZN86_$LT$serde_json..ser..Compound$LT$W$C$F$GT$$u20$as$u20$serde..ser..SerializeStruct$GT$15serialize_field17hcb01943a3afa3749E.2098', symObjAddr: 0x3BC94, symBinAddr: 0x3B190, symSize: 0x3D }
  - { offsetInCU: 0x1703C, offset: 0x158C39, size: 0x8, addend: 0x0, symName: '__ZN86_$LT$serde_json..ser..Compound$LT$W$C$F$GT$$u20$as$u20$serde..ser..SerializeStruct$GT$15serialize_field17hd55887209b2248c9E', symObjAddr: 0x3BD96, symBinAddr: 0x3B292, symSize: 0x97 }
  - { offsetInCU: 0x17305, offset: 0x158F02, size: 0x8, addend: 0x0, symName: '__ZN86_$LT$serde_json..ser..Compound$LT$W$C$F$GT$$u20$as$u20$serde..ser..SerializeStruct$GT$3end17h81fafa3c29bfe915E.2108', symObjAddr: 0x3BE2D, symBinAddr: 0x3B329, symSize: 0x1E }
  - { offsetInCU: 0x1740B, offset: 0x159008, size: 0x8, addend: 0x0, symName: '__ZN95_$LT$$RF$mut$u20$serde_json..ser..Serializer$LT$W$C$F$GT$$u20$as$u20$serde..ser..Serializer$GT$24serialize_struct_variant17h494cfb477f4551a7E', symObjAddr: 0x3BBFE, symBinAddr: 0x3B0FA, symSize: 0x63 }
  - { offsetInCU: 0x174CB, offset: 0x1590C8, size: 0x8, addend: 0x0, symName: '__ZN95_$LT$$RF$mut$u20$serde_json..ser..Serializer$LT$W$C$F$GT$$u20$as$u20$serde..ser..Serializer$GT$13serialize_map17haa55fc067d568cdbE.2102', symObjAddr: 0x3BCF3, symBinAddr: 0x3B1EF, symSize: 0x45 }
  - { offsetInCU: 0x17548, offset: 0x159145, size: 0x8, addend: 0x0, symName: '__ZN95_$LT$$RF$mut$u20$serde_json..ser..Serializer$LT$W$C$F$GT$$u20$as$u20$serde..ser..Serializer$GT$16serialize_struct17h1e484eaa7568945eE.2107', symObjAddr: 0x3BD38, symBinAddr: 0x3B234, symSize: 0x5E }
  - { offsetInCU: 0x17651, offset: 0x15924E, size: 0x8, addend: 0x0, symName: __ZN10serde_json3ser9Formatter10end_object17h274b0b4ada8b4c56E.2099, symObjAddr: 0x3BCD1, symBinAddr: 0x3B1CD, symSize: 0x11 }
  - { offsetInCU: 0x1769C, offset: 0x159299, size: 0x8, addend: 0x0, symName: __ZN10serde_json3ser9Formatter12begin_object17h3008f47df39ab3b5E, symObjAddr: 0x3BCE2, symBinAddr: 0x3B1DE, symSize: 0x11 }
  - { offsetInCU: 0x18F7E, offset: 0x15AB7B, size: 0x8, addend: 0x0, symName: '__ZN5alloc3vec16Vec$LT$T$C$A$GT$4push17h561ea4cf51f19735E', symObjAddr: 0x3757C, symBinAddr: 0x36A78, symSize: 0x43 }
  - { offsetInCU: 0x19044, offset: 0x15AC41, size: 0x8, addend: 0x0, symName: __ZN14powersync_core4sync14streaming_sync22StreamingSyncIteration25handle_checkpoint_applied17hd1b00beceb9d141aE, symObjAddr: 0x3760C, symBinAddr: 0x36B08, symSize: 0xAE }
  - { offsetInCU: 0x194BF, offset: 0x15B0BC, size: 0x8, addend: 0x0, symName: __ZN14powersync_core4sync14streaming_sync22StreamingSyncIteration13load_progress17ha0be9fe09fd78f36E, symObjAddr: 0x3785D, symBinAddr: 0x36D59, symSize: 0xD70 }
  - { offsetInCU: 0x1B8F1, offset: 0x15D4EE, size: 0x8, addend: 0x0, symName: '__ZN41_$LT$T$u20$as$u20$serde..de..Expected$GT$3fmt17hda25736c3abf7a03E', symObjAddr: 0x38654, symBinAddr: 0x37B50, symSize: 0x23 }
  - { offsetInCU: 0x1BB60, offset: 0x15D75D, size: 0x8, addend: 0x0, symName: __ZN14powersync_core5state13DatabaseState11destroy_arc17hd07dd9dce5bdf633E, symObjAddr: 0x386CC, symBinAddr: 0x37BC8, symSize: 0x21 }
  - { offsetInCU: 0x1C2F9, offset: 0x15DEF6, size: 0x8, addend: 0x0, symName: __ZN14powersync_core4sync14streaming_sync11ClientState9tear_down17h805fe450076ca794E, symObjAddr: 0x3B97C, symBinAddr: 0x3AE78, symSize: 0xC9 }
  - { offsetInCU: 0x1C47F, offset: 0x15E07C, size: 0x8, addend: 0x0, symName: __ZN14powersync_core4sync14streaming_sync19SyncIterationHandle3run17hbd276a5d1eb3c225E, symObjAddr: 0x3BB12, symBinAddr: 0x3B00E, symSize: 0xB3 }
  - { offsetInCU: 0x1E, offset: 0x15E341, size: 0x8, addend: 0x0, symName: __ZN3ryu6pretty8format6417h8d5f32b49bf0065bE, symObjAddr: 0x3BE4B, symBinAddr: 0x3B347, symSize: 0x606 }
  - { offsetInCU: 0x43, offset: 0x15E366, size: 0x8, addend: 0x0, symName: __ZN3ryu14d2s_full_table21DOUBLE_POW5_INV_SPLIT17h79409c5c06af12cfE, symObjAddr: 0x4CEE8, symBinAddr: 0x4BDD0, symSize: 0x0 }
  - { offsetInCU: 0x5F, offset: 0x15E382, size: 0x8, addend: 0x0, symName: __ZN3ryu14d2s_full_table17DOUBLE_POW5_SPLIT17h1d3e69051f5f7ad1E, symObjAddr: 0x4E448, symBinAddr: 0x4D330, symSize: 0x0 }
  - { offsetInCU: 0x47D, offset: 0x15E7A0, size: 0x8, addend: 0x0, symName: __ZN3ryu14d2s_intrinsics16mul_shift_all_6417h313b94bdf970d980E, symObjAddr: 0x3C451, symBinAddr: 0x3B94D, symSize: 0xD0 }
  - { offsetInCU: 0x61E, offset: 0x15E941, size: 0x8, addend: 0x0, symName: __ZN3ryu14d2s_intrinsics22multiple_of_power_of_517h189efe2803b9de45E, symObjAddr: 0x3C521, symBinAddr: 0x3BA1D, symSize: 0x2F }
  - { offsetInCU: 0x6BD, offset: 0x15E9E0, size: 0x8, addend: 0x0, symName: __ZN3ryu6pretty8format6417h8d5f32b49bf0065bE, symObjAddr: 0x3BE4B, symBinAddr: 0x3B347, symSize: 0x606 }
  - { offsetInCU: 0x13D7, offset: 0x15F6FA, size: 0x8, addend: 0x0, symName: __ZN3ryu6pretty8mantissa19write_mantissa_long17h6a7dc7d8ee212fa0E, symObjAddr: 0x3C550, symBinAddr: 0x3BA4C, symSize: 0x124 }
  - { offsetInCU: 0x166F, offset: 0x15F992, size: 0x8, addend: 0x0, symName: __ZN3ryu6pretty8exponent15write_exponent317hdc109705b967b77eE, symObjAddr: 0x3C674, symBinAddr: 0x3BB70, symSize: 0x74 }
  - { offsetInCU: 0x1E, offset: 0x160166, size: 0x8, addend: 0x0, symName: '__ZN44_$LT$$RF$T$u20$as$u20$core..fmt..Display$GT$3fmt17h79488f8c88c93027E', symObjAddr: 0x3C6E8, symBinAddr: 0x3BBE4, symSize: 0xD }
  - { offsetInCU: 0x65, offset: 0x1601AD, size: 0x8, addend: 0x0, symName: '__ZN128_$LT$$LT$serde..de..WithDecimalPoint$u20$as$u20$core..fmt..Display$GT$..fmt..LookForDecimalPoint$u20$as$u20$core..fmt..Write$GT$9write_str17h3b61078e335bfed8E', symObjAddr: 0x3C766, symBinAddr: 0x3BC62, symSize: 0x6B }
  - { offsetInCU: 0x1A9, offset: 0x1602F1, size: 0x8, addend: 0x0, symName: '__ZN128_$LT$$LT$serde..de..WithDecimalPoint$u20$as$u20$core..fmt..Display$GT$..fmt..LookForDecimalPoint$u20$as$u20$core..fmt..Write$GT$10write_char17h2fcb7de607c16d1aE', symObjAddr: 0x3C7D1, symBinAddr: 0x3BCCD, symSize: 0x1E }
  - { offsetInCU: 0x206, offset: 0x16034E, size: 0x8, addend: 0x0, symName: '__ZN66_$LT$serde..de..WithDecimalPoint$u20$as$u20$core..fmt..Display$GT$3fmt17h0bb9699f4b20b9e8E', symObjAddr: 0x3CB10, symBinAddr: 0x3C00C, symSize: 0xE0 }
  - { offsetInCU: 0x61D, offset: 0x160765, size: 0x8, addend: 0x0, symName: '__ZN60_$LT$serde..de..Unexpected$u20$as$u20$core..fmt..Display$GT$3fmt17hb0aefaa327424a06E', symObjAddr: 0x3C83D, symBinAddr: 0x3BD39, symSize: 0x2D3 }
  - { offsetInCU: 0x974, offset: 0x160ABC, size: 0x8, addend: 0x0, symName: '__ZN47_$LT$$RF$str$u20$as$u20$serde..de..Expected$GT$3fmt17h4c16a96f9f0bf1b7E', symObjAddr: 0x3CBF0, symBinAddr: 0x3C0EC, symSize: 0x1C }
  - { offsetInCU: 0x9D8, offset: 0x160B20, size: 0x8, addend: 0x0, symName: '__ZN55_$LT$serde..de..OneOf$u20$as$u20$core..fmt..Display$GT$3fmt17he102780243eb5f83E', symObjAddr: 0x3CC0C, symBinAddr: 0x3C108, symSize: 0x1B4 }
  - { offsetInCU: 0x1018, offset: 0x161160, size: 0x8, addend: 0x0, symName: '__ZN44_$LT$$RF$T$u20$as$u20$core..fmt..Display$GT$3fmt17h79488f8c88c93027E', symObjAddr: 0x3C6E8, symBinAddr: 0x3BBE4, symSize: 0xD }
  - { offsetInCU: 0x10AE, offset: 0x1611F6, size: 0x8, addend: 0x0, symName: __ZN4core3fmt5Write9write_fmt17hcfa56211714e5d37E, symObjAddr: 0x3C6F5, symBinAddr: 0x3BBF1, symSize: 0x3F }
  - { offsetInCU: 0x2503, offset: 0x16264B, size: 0x8, addend: 0x0, symName: __ZN4core3fmt9Arguments23as_statically_known_str17hb4d78d69e5baebe7E.2115, symObjAddr: 0x3C734, symBinAddr: 0x3BC30, symSize: 0x32 }
  - { offsetInCU: 0x257A, offset: 0x1626C2, size: 0x8, addend: 0x0, symName: __ZN4core3fmt9Formatter9write_fmt17h6547b3ea83dd1893E.2118, symObjAddr: 0x3C7EF, symBinAddr: 0x3BCEB, symSize: 0x4E }
  - { offsetInCU: 0x1E, offset: 0x16289F, size: 0x8, addend: 0x0, symName: '__ZN5alloc11collections5btree4node21LeafNode$LT$K$C$V$GT$3new17hbe964572e6a18e57E', symObjAddr: 0x3CDC0, symBinAddr: 0x3C2BC, symSize: 0x2A }
  - { offsetInCU: 0x1E4C, offset: 0x1646CD, size: 0x8, addend: 0x0, symName: '__ZN4core5array88_$LT$impl$u20$core..ops..index..IndexMut$LT$I$GT$$u20$for$u20$$u5b$T$u3b$$u20$N$u5d$$GT$9index_mut17h45d0ee710e537d3dE', symObjAddr: 0x3CFD2, symBinAddr: 0x3C4CE, symSize: 0x1F }
  - { offsetInCU: 0x2EF8, offset: 0x165779, size: 0x8, addend: 0x0, symName: __ZN5alloc11collections5btree4node12slice_insert17h5b572c45a7f35706E, symObjAddr: 0x3CE86, symBinAddr: 0x3C382, symSize: 0x73 }
  - { offsetInCU: 0x304F, offset: 0x1658D0, size: 0x8, addend: 0x0, symName: __ZN5alloc11collections5btree4node12slice_insert17ha63ff09e644d3e13E, symObjAddr: 0x3CEF9, symBinAddr: 0x3C3F5, symSize: 0x67 }
  - { offsetInCU: 0x31A4, offset: 0x165A25, size: 0x8, addend: 0x0, symName: __ZN5alloc11collections5btree4node13move_to_slice17h0d7c61b71ebf7407E, symObjAddr: 0x3CF60, symBinAddr: 0x3C45C, symSize: 0x26 }
  - { offsetInCU: 0x3219, offset: 0x165A9A, size: 0x8, addend: 0x0, symName: __ZN5alloc11collections5btree4node13move_to_slice17h9ea9015fe194767eE, symObjAddr: 0x3CF86, symBinAddr: 0x3C482, symSize: 0x26 }
  - { offsetInCU: 0x328C, offset: 0x165B0D, size: 0x8, addend: 0x0, symName: __ZN5alloc11collections5btree4node13move_to_slice17hd18d62c00d1b48d0E, symObjAddr: 0x3CFAC, symBinAddr: 0x3C4A8, symSize: 0x26 }
  - { offsetInCU: 0x579A, offset: 0x16801B, size: 0x8, addend: 0x0, symName: '__ZN5alloc11collections5btree4node21LeafNode$LT$K$C$V$GT$3new17hbe964572e6a18e57E', symObjAddr: 0x3CDC0, symBinAddr: 0x3C2BC, symSize: 0x2A }
  - { offsetInCU: 0x5A34, offset: 0x1682B5, size: 0x8, addend: 0x0, symName: '__ZN5alloc11collections5btree4node119NodeRef$LT$alloc..collections..btree..node..marker..Mut$C$K$C$V$C$alloc..collections..btree..node..marker..Internal$GT$30correct_childrens_parent_links17h116449b594beae9cE', symObjAddr: 0x3CDEA, symBinAddr: 0x3C2E6, symSize: 0x26 }
  - { offsetInCU: 0x5CB9, offset: 0x16853A, size: 0x8, addend: 0x0, symName: '__ZN5alloc11collections5btree4node25InternalNode$LT$K$C$V$GT$3new17h03697376723f32daE', symObjAddr: 0x3CE10, symBinAddr: 0x3C30C, symSize: 0x2A }
  - { offsetInCU: 0x5F46, offset: 0x1687C7, size: 0x8, addend: 0x0, symName: '__ZN5alloc11collections5btree4node121NodeRef$LT$alloc..collections..btree..node..marker..Owned$C$K$C$V$C$alloc..collections..btree..node..marker..Internal$GT$17from_new_internal17ha711b7cde497b1c0E', symObjAddr: 0x3CE3A, symBinAddr: 0x3C336, symSize: 0x4C }
  - { offsetInCU: 0x629D, offset: 0x168B1E, size: 0x8, addend: 0x0, symName: '__ZN5alloc11collections5btree4node214Handle$LT$alloc..collections..btree..node..NodeRef$LT$alloc..collections..btree..node..marker..Mut$C$K$C$V$C$alloc..collections..btree..node..marker..Internal$GT$$C$alloc..collections..btree..node..marker..Edge$GT$10insert_fit17h9449a535a883eedfE', symObjAddr: 0x3CFF1, symBinAddr: 0x3C4ED, symSize: 0xB8 }
  - { offsetInCU: 0x1E, offset: 0x16A4E4, size: 0x8, addend: 0x0, symName: __ZN10serde_json2de12ParserNumber5visit17hd20e0ae271e54993E, symObjAddr: 0x3D0A9, symBinAddr: 0x3C5A5, symSize: 0x8F }
  - { offsetInCU: 0x44, offset: 0x16A50A, size: 0x8, addend: 0x0, symName: __ZN10serde_json2de5POW1017h60c6397e74d5eca2E, symObjAddr: 0x4F970, symBinAddr: 0x4E858, symSize: 0x0 }
  - { offsetInCU: 0x546, offset: 0x16AA0C, size: 0x8, addend: 0x0, symName: '__ZN75_$LT$serde_json..de..SeqAccess$LT$R$GT$$u20$as$u20$serde..de..SeqAccess$GT$17next_element_seed16has_next_element17hb565c4cb6c9a3003E', symObjAddr: 0x3E32A, symBinAddr: 0x3D47E, symSize: 0xEC }
  - { offsetInCU: 0x9FD, offset: 0x16AEC3, size: 0x8, addend: 0x0, symName: '__ZN75_$LT$serde_json..de..MapAccess$LT$R$GT$$u20$as$u20$serde..de..MapAccess$GT$13next_key_seed12has_next_key17hd516541ea8a7b939E', symObjAddr: 0x3EEBF, symBinAddr: 0x3E013, symSize: 0x10E }
  - { offsetInCU: 0xAA7, offset: 0x16AF6D, size: 0x8, addend: 0x0, symName: '__ZN75_$LT$serde_json..de..MapAccess$LT$R$GT$$u20$as$u20$serde..de..MapAccess$GT$13next_key_seed17ha8738709b9b00d8eE', symObjAddr: 0x3EFCD, symBinAddr: 0x3E121, symSize: 0xB0 }
  - { offsetInCU: 0xC9A, offset: 0x16B160, size: 0x8, addend: 0x0, symName: '__ZN75_$LT$serde_json..de..MapAccess$LT$R$GT$$u20$as$u20$serde..de..MapAccess$GT$15next_value_seed17h939f6bcfcd6dece0E', symObjAddr: 0x3F07D, symBinAddr: 0x3E1D1, symSize: 0x35 }
  - { offsetInCU: 0xE20, offset: 0x16B2E6, size: 0x8, addend: 0x0, symName: __ZN10serde_json2de8from_str17h88050641d5473c6dE, symObjAddr: 0x3F0B2, symBinAddr: 0x3E206, symSize: 0xAB }
  - { offsetInCU: 0x1597, offset: 0x16BA5D, size: 0x8, addend: 0x0, symName: '__ZN10serde_json5value2de77_$LT$impl$u20$serde..de..Deserialize$u20$for$u20$serde_json..value..Value$GT$11deserialize17h296923801b74804aE', symObjAddr: 0x3E416, symBinAddr: 0x3D56A, symSize: 0xAA9 }
  - { offsetInCU: 0x28D8, offset: 0x16CD9E, size: 0x8, addend: 0x0, symName: '__ZN4core3ptr45drop_in_place$LT$serde_json..value..Value$GT$17h7cffa3c29ecf2060E', symObjAddr: 0x3D138, symBinAddr: 0x3C634, symSize: 0x36 }
  - { offsetInCU: 0x299C, offset: 0x16CE62, size: 0x8, addend: 0x0, symName: '__ZN4core3ptr68drop_in_place$LT$alloc..vec..Vec$LT$serde_json..value..Value$GT$$GT$17hdf38d2ed0f494df9E', symObjAddr: 0x3D16E, symBinAddr: 0x3C66A, symSize: 0x20 }
  - { offsetInCU: 0x3F6D, offset: 0x16E433, size: 0x8, addend: 0x0, symName: __ZN10serde_json2de12ParserNumber5visit17hd20e0ae271e54993E, symObjAddr: 0x3D0A9, symBinAddr: 0x3C5A5, symSize: 0x8F }
  - { offsetInCU: 0x4144, offset: 0x16E60A, size: 0x8, addend: 0x0, symName: __ZN10serde_json2de12ParserNumber12invalid_type17hf3b3139beb1df163E, symObjAddr: 0x3D18E, symBinAddr: 0x3C68A, symSize: 0x53 }
  - { offsetInCU: 0x41CA, offset: 0x16E690, size: 0x8, addend: 0x0, symName: '__ZN10serde_json2de21Deserializer$LT$R$GT$3end17hd1490d8230c403f7E', symObjAddr: 0x3D1E1, symBinAddr: 0x3C6DD, symSize: 0x4F }
  - { offsetInCU: 0x4211, offset: 0x16E6D7, size: 0x8, addend: 0x0, symName: '__ZN10serde_json2de21Deserializer$LT$R$GT$16parse_whitespace17hc18e48aa7c5663ecE', symObjAddr: 0x3D230, symBinAddr: 0x3C72C, symSize: 0x4C }
  - { offsetInCU: 0x430A, offset: 0x16E7D0, size: 0x8, addend: 0x0, symName: '__ZN10serde_json2de21Deserializer$LT$R$GT$10peek_error17h8373ac5c0c452394E', symObjAddr: 0x3D27C, symBinAddr: 0x43810, symSize: 0x5F }
  - { offsetInCU: 0x4432, offset: 0x16E8F8, size: 0x8, addend: 0x0, symName: '__ZN10serde_json2de21Deserializer$LT$R$GT$9next_char17hb3fec7809c9fbaa9E', symObjAddr: 0x3D2DB, symBinAddr: 0x3C77B, symSize: 0x2F }
  - { offsetInCU: 0x4456, offset: 0x16E91C, size: 0x8, addend: 0x0, symName: '__ZN10serde_json2de21Deserializer$LT$R$GT$9next_char17hb3fec7809c9fbaa9E', symObjAddr: 0x3D2DB, symBinAddr: 0x3C77B, symSize: 0x2F }
  - { offsetInCU: 0x4473, offset: 0x16E939, size: 0x8, addend: 0x0, symName: '__ZN10serde_json2de21Deserializer$LT$R$GT$9next_char17hb3fec7809c9fbaa9E', symObjAddr: 0x3D2DB, symBinAddr: 0x3C77B, symSize: 0x2F }
  - { offsetInCU: 0x44E5, offset: 0x16E9AB, size: 0x8, addend: 0x0, symName: '__ZN10serde_json2de21Deserializer$LT$R$GT$17next_char_or_null17h78cc05f0dd76db05E', symObjAddr: 0x3D30A, symBinAddr: 0x3C7AA, symSize: 0x47 }
  - { offsetInCU: 0x4549, offset: 0x16EA0F, size: 0x8, addend: 0x0, symName: '__ZN10serde_json2de21Deserializer$LT$R$GT$5error17he746220c2f9c534aE', symObjAddr: 0x3D351, symBinAddr: 0x43871, symSize: 0x4A }
  - { offsetInCU: 0x46A2, offset: 0x16EB68, size: 0x8, addend: 0x0, symName: '__ZN10serde_json2de21Deserializer$LT$R$GT$17peek_invalid_type17h8dbc25896f9b9493E', symObjAddr: 0x3D39B, symBinAddr: 0x438BB, symSize: 0x1DD }
  - { offsetInCU: 0x4A6A, offset: 0x16EF30, size: 0x8, addend: 0x0, symName: '__ZN10serde_json2de21Deserializer$LT$R$GT$11parse_ident17h85fed897824a626cE', symObjAddr: 0x3D578, symBinAddr: 0x3C7F4, symSize: 0x83 }
  - { offsetInCU: 0x4B4A, offset: 0x16F010, size: 0x8, addend: 0x0, symName: '__ZN10serde_json2de21Deserializer$LT$R$GT$13parse_integer17h5e0965227fa4157fE', symObjAddr: 0x3D5FB, symBinAddr: 0x3C877, symSize: 0x176 }
  - { offsetInCU: 0x4D7E, offset: 0x16F244, size: 0x8, addend: 0x0, symName: '__ZN10serde_json2de21Deserializer$LT$R$GT$12parse_number17h29d92cedc65c5191E', symObjAddr: 0x3D771, symBinAddr: 0x3C9ED, symSize: 0xC0 }
  - { offsetInCU: 0x4E60, offset: 0x16F326, size: 0x8, addend: 0x0, symName: '__ZN10serde_json2de21Deserializer$LT$R$GT$18parse_long_integer17h9a08a79dd84faca5E', symObjAddr: 0x3D831, symBinAddr: 0x43A99, symSize: 0x63 }
  - { offsetInCU: 0x4FC0, offset: 0x16F486, size: 0x8, addend: 0x0, symName: '__ZN10serde_json2de21Deserializer$LT$R$GT$14f64_from_parts17h1c171be52cddd8b5E', symObjAddr: 0x3D894, symBinAddr: 0x3CAB0, symSize: 0xCB }
  - { offsetInCU: 0x510B, offset: 0x16F5D1, size: 0x8, addend: 0x0, symName: '__ZN10serde_json2de21Deserializer$LT$R$GT$13parse_decimal17hfd0d914b3521ef11E', symObjAddr: 0x3D95F, symBinAddr: 0x3CB7B, symSize: 0x11B }
  - { offsetInCU: 0x5338, offset: 0x16F7FE, size: 0x8, addend: 0x0, symName: '__ZN10serde_json2de21Deserializer$LT$R$GT$14parse_exponent17hd7bd8eccfb97c889E', symObjAddr: 0x3DA7A, symBinAddr: 0x3CC96, symSize: 0x188 }
  - { offsetInCU: 0x56BD, offset: 0x16FB83, size: 0x8, addend: 0x0, symName: '__ZN10serde_json2de21Deserializer$LT$R$GT$23parse_exponent_overflow17h9e281cdcd92bba5bE', symObjAddr: 0x3DC02, symBinAddr: 0x43AFE, symSize: 0x80 }
  - { offsetInCU: 0x57EA, offset: 0x16FCB0, size: 0x8, addend: 0x0, symName: '__ZN10serde_json2de21Deserializer$LT$R$GT$22parse_decimal_overflow17h17ae319c64bc1e15E', symObjAddr: 0x3DC82, symBinAddr: 0x43B7E, symSize: 0x4B }
  - { offsetInCU: 0x5913, offset: 0x16FDD9, size: 0x8, addend: 0x0, symName: '__ZN10serde_json2de21Deserializer$LT$R$GT$18parse_object_colon17h003504371c5fe1daE', symObjAddr: 0x3DCCD, symBinAddr: 0x3CE21, symSize: 0x66 }
  - { offsetInCU: 0x59A7, offset: 0x16FE6D, size: 0x8, addend: 0x0, symName: '__ZN10serde_json2de21Deserializer$LT$R$GT$7end_seq17hedb8b1fd5d069ec3E', symObjAddr: 0x3DD33, symBinAddr: 0x3CE87, symSize: 0xD6 }
  - { offsetInCU: 0x5AA7, offset: 0x16FF6D, size: 0x8, addend: 0x0, symName: '__ZN10serde_json2de21Deserializer$LT$R$GT$7end_map17ha0edb5d138342a2bE', symObjAddr: 0x3DE09, symBinAddr: 0x3CF5D, symSize: 0x77 }
  - { offsetInCU: 0x5B2E, offset: 0x16FFF4, size: 0x8, addend: 0x0, symName: '__ZN10serde_json2de21Deserializer$LT$R$GT$12ignore_value17habdd8983d5763437E', symObjAddr: 0x3DE80, symBinAddr: 0x3CFD4, symSize: 0x2A9 }
  - { offsetInCU: 0x62B6, offset: 0x17077C, size: 0x8, addend: 0x0, symName: '__ZN10serde_json2de21Deserializer$LT$R$GT$14ignore_integer17hc232d5943309da72E', symObjAddr: 0x3E129, symBinAddr: 0x3D27D, symSize: 0x136 }
  - { offsetInCU: 0x660E, offset: 0x170AD4, size: 0x8, addend: 0x0, symName: '__ZN5alloc3vec16Vec$LT$T$C$A$GT$3pop17h4e19ca887f9d5901E', symObjAddr: 0x3E25F, symBinAddr: 0x3D3B3, symSize: 0x27 }
  - { offsetInCU: 0x66CB, offset: 0x170B91, size: 0x8, addend: 0x0, symName: '__ZN10serde_json2de21Deserializer$LT$R$GT$15ignore_exponent17hfa5545278c3d686dE', symObjAddr: 0x3E286, symBinAddr: 0x3D3DA, symSize: 0xA4 }
  - { offsetInCU: 0x1E, offset: 0x171037, size: 0x8, addend: 0x0, symName: __ZN5alloc5alloc15exchange_malloc17h238ed74f6b8dc009E.2233, symObjAddr: 0x3F15D, symBinAddr: 0x3E2B1, symSize: 0x1E }
  - { offsetInCU: 0x1AD, offset: 0x1711C6, size: 0x8, addend: 0x0, symName: '__ZN58_$LT$alloc..string..String$u20$as$u20$core..fmt..Write$GT$10write_char17h99abeeb8cff35533E.2245', symObjAddr: 0x3F50F, symBinAddr: 0x3E62F, symSize: 0x101 }
  - { offsetInCU: 0x3E3, offset: 0x1713FC, size: 0x8, addend: 0x0, symName: '__ZN74_$LT$alloc..string..String$u20$as$u20$core..ops..index..Index$LT$I$GT$$GT$5index17h669290c7ba226377E', symObjAddr: 0x3FB2D, symBinAddr: 0x3EC11, symSize: 0x2B }
  - { offsetInCU: 0x422, offset: 0x17143B, size: 0x8, addend: 0x0, symName: '__ZN74_$LT$alloc..string..String$u20$as$u20$core..ops..index..Index$LT$I$GT$$GT$5index17h669290c7ba226377E', symObjAddr: 0x3FB2D, symBinAddr: 0x3EC11, symSize: 0x2B }
  - { offsetInCU: 0x443, offset: 0x17145C, size: 0x8, addend: 0x0, symName: '__ZN74_$LT$alloc..string..String$u20$as$u20$core..ops..index..Index$LT$I$GT$$GT$5index17h669290c7ba226377E', symObjAddr: 0x3FB2D, symBinAddr: 0x3EC11, symSize: 0x2B }
  - { offsetInCU: 0x483, offset: 0x17149C, size: 0x8, addend: 0x0, symName: '__ZN74_$LT$alloc..string..String$u20$as$u20$core..ops..index..Index$LT$I$GT$$GT$5index17h669290c7ba226377E', symObjAddr: 0x3FB2D, symBinAddr: 0x3EC11, symSize: 0x2B }
  - { offsetInCU: 0x57C, offset: 0x171595, size: 0x8, addend: 0x0, symName: '__ZN74_$LT$alloc..string..String$u20$as$u20$core..ops..index..Index$LT$I$GT$$GT$5index17h91d5c1f598903868E', symObjAddr: 0x3FB58, symBinAddr: 0x3EC3C, symSize: 0x41 }
  - { offsetInCU: 0x5BB, offset: 0x1715D4, size: 0x8, addend: 0x0, symName: '__ZN74_$LT$alloc..string..String$u20$as$u20$core..ops..index..Index$LT$I$GT$$GT$5index17h91d5c1f598903868E', symObjAddr: 0x3FB58, symBinAddr: 0x3EC3C, symSize: 0x41 }
  - { offsetInCU: 0x5DE, offset: 0x1715F7, size: 0x8, addend: 0x0, symName: '__ZN74_$LT$alloc..string..String$u20$as$u20$core..ops..index..Index$LT$I$GT$$GT$5index17h91d5c1f598903868E', symObjAddr: 0x3FB58, symBinAddr: 0x3EC3C, symSize: 0x41 }
  - { offsetInCU: 0x8EA, offset: 0x171903, size: 0x8, addend: 0x0, symName: __ZN5alloc5alloc15exchange_malloc17h238ed74f6b8dc009E.2233, symObjAddr: 0x3F15D, symBinAddr: 0x3E2B1, symSize: 0x1E }
  - { offsetInCU: 0x12CC, offset: 0x1722E5, size: 0x8, addend: 0x0, symName: '__ZN4core3num62_$LT$impl$u20$core..str..traits..FromStr$u20$for$u20$usize$GT$8from_str17h48f5ece66d366c7fE', symObjAddr: 0x3FB99, symBinAddr: 0x3EC7D, symSize: 0xB9 }
  - { offsetInCU: 0x2C0D, offset: 0x173C26, size: 0x8, addend: 0x0, symName: '__ZN61_$LT$serde_json..error..Error$u20$as$u20$serde..de..Error$GT$6custom17h4157e341ff82390cE', symObjAddr: 0x3F610, symBinAddr: 0x43C00, symSize: 0x3C }
  - { offsetInCU: 0x2D2E, offset: 0x173D47, size: 0x8, addend: 0x0, symName: '__ZN61_$LT$serde_json..error..Error$u20$as$u20$serde..de..Error$GT$6custom17hfc16d68a27870602E', symObjAddr: 0x3FC52, symBinAddr: 0x43C3E, symSize: 0x2A }
  - { offsetInCU: 0x2E0D, offset: 0x173E26, size: 0x8, addend: 0x0, symName: '__ZN61_$LT$serde_json..error..Error$u20$as$u20$serde..de..Error$GT$12invalid_type17h9fe57799e893eb69E', symObjAddr: 0x3FC7C, symBinAddr: 0x43C68, symSize: 0x81 }
  - { offsetInCU: 0x2E6B, offset: 0x173E84, size: 0x8, addend: 0x0, symName: '__ZN61_$LT$serde_json..error..Error$u20$as$u20$serde..de..Error$GT$13invalid_value17h95ef8a8225fb535fE', symObjAddr: 0x3FE09, symBinAddr: 0x43CE9, symSize: 0x81 }
  - { offsetInCU: 0x2ECF, offset: 0x173EE8, size: 0x8, addend: 0x0, symName: '__ZN67_$LT$serde_json..error..ErrorCode$u20$as$u20$core..fmt..Display$GT$3fmt17hb7d8f90e0be813f4E', symObjAddr: 0x3F1AF, symBinAddr: 0x3E2CF, symSize: 0x2B5 }
  - { offsetInCU: 0x324E, offset: 0x174267, size: 0x8, addend: 0x0, symName: '__ZN67_$LT$serde_json..error..ErrorImpl$u20$as$u20$core..fmt..Display$GT$3fmt17h93a460fefbb7835bE', symObjAddr: 0x3F464, symBinAddr: 0x3E584, symSize: 0x78 }
  - { offsetInCU: 0x3398, offset: 0x1743B1, size: 0x8, addend: 0x0, symName: __ZN10serde_json5error10make_error17h37fcb0a44e14f938E, symObjAddr: 0x3F64C, symBinAddr: 0x3E730, symSize: 0x311 }
  - { offsetInCU: 0x3A03, offset: 0x174A1C, size: 0x8, addend: 0x0, symName: '__ZN72_$LT$serde_json..error..JsonUnexpected$u20$as$u20$core..fmt..Display$GT$3fmt17hb838c83e218f54f2E', symObjAddr: 0x3FCFD, symBinAddr: 0x3ED39, symSize: 0x10C }
  - { offsetInCU: 0x3EE3, offset: 0x174EFC, size: 0x8, addend: 0x0, symName: __ZN10serde_json5error5Error12fix_position17h43ed5e804e032a1fE, symObjAddr: 0x3F17B, symBinAddr: 0x43BCB, symSize: 0x34 }
  - { offsetInCU: 0x4112, offset: 0x17512B, size: 0x8, addend: 0x0, symName: __ZN4core3fmt9Formatter9write_fmt17h6547b3ea83dd1893E.2241, symObjAddr: 0x3F4DC, symBinAddr: 0x3E5FC, symSize: 0x33 }
  - { offsetInCU: 0x451A, offset: 0x175533, size: 0x8, addend: 0x0, symName: __ZN4core3str7pattern14TwoWaySearcher9next_back17hbe6bf05cb452cb85E, symObjAddr: 0x3F95D, symBinAddr: 0x3EA41, symSize: 0x1D0 }
  - { offsetInCU: 0x1E, offset: 0x175B27, size: 0x8, addend: 0x0, symName: __ZN10serde_json3ser9Formatter10end_object17ha2cba088061b4be4E, symObjAddr: 0x3FE8A, symBinAddr: 0x3EE46, symSize: 0x26 }
  - { offsetInCU: 0xA9B, offset: 0x1765A4, size: 0x8, addend: 0x0, symName: __ZN10serde_json3ser9Formatter10end_object17ha2cba088061b4be4E, symObjAddr: 0x3FE8A, symBinAddr: 0x3EE46, symSize: 0x26 }
  - { offsetInCU: 0x1E, offset: 0x177933, size: 0x8, addend: 0x0, symName: '__ZN70_$LT$serde_json..read..SliceRead$u20$as$u20$serde_json..read..Read$GT$8position17h52a1a5735f3cdb26E', symObjAddr: 0x3FEB0, symBinAddr: 0x3EE6C, symSize: 0x18 }
  - { offsetInCU: 0x3A9, offset: 0x177CBE, size: 0x8, addend: 0x0, symName: '__ZN110_$LT$core..ops..range..RangeFrom$LT$usize$GT$$u20$as$u20$core..slice..index..SliceIndex$LT$$u5b$T$u5d$$GT$$GT$5index17hbfd9448cf12554f8E', symObjAddr: 0x40372, symBinAddr: 0x3F246, symSize: 0x1E }
  - { offsetInCU: 0x1033, offset: 0x178948, size: 0x8, addend: 0x0, symName: __ZN10serde_json4read4HEX017h635df1e8359a8cb7E, symObjAddr: 0x5057E, symBinAddr: 0x4F466, symSize: 0x0 }
  - { offsetInCU: 0x104F, offset: 0x178964, size: 0x8, addend: 0x0, symName: __ZN10serde_json4read4HEX117hb28ec1e9995d677dE, symObjAddr: 0x5077E, symBinAddr: 0x4F666, symSize: 0x0 }
  - { offsetInCU: 0x107F, offset: 0x178994, size: 0x8, addend: 0x0, symName: '__ZN70_$LT$serde_json..read..SliceRead$u20$as$u20$serde_json..read..Read$GT$8position17h52a1a5735f3cdb26E', symObjAddr: 0x3FEB0, symBinAddr: 0x3EE6C, symSize: 0x18 }
  - { offsetInCU: 0x10DB, offset: 0x1789F0, size: 0x8, addend: 0x0, symName: '__ZN70_$LT$serde_json..read..SliceRead$u20$as$u20$serde_json..read..Read$GT$17decode_hex_escape17hb51f13c11de38f2cE', symObjAddr: 0x4016D, symBinAddr: 0x3F091, symSize: 0xB3 }
  - { offsetInCU: 0x136B, offset: 0x178C80, size: 0x8, addend: 0x0, symName: '__ZN68_$LT$serde_json..read..StrRead$u20$as$u20$serde_json..read..Read$GT$9parse_str17h2ecb834149c6e837E', symObjAddr: 0x40418, symBinAddr: 0x3F264, symSize: 0x354 }
  - { offsetInCU: 0x187B, offset: 0x179190, size: 0x8, addend: 0x0, symName: '__ZN68_$LT$serde_json..read..StrRead$u20$as$u20$serde_json..read..Read$GT$10ignore_str17haf4a8f04ed4fa4daE', symObjAddr: 0x4076C, symBinAddr: 0x3F5B8, symSize: 0x11C }
  - { offsetInCU: 0x1921, offset: 0x179236, size: 0x8, addend: 0x0, symName: __ZN10serde_json4read5error17h0549ff2eaf9d9d2eE, symObjAddr: 0x4005A, symBinAddr: 0x43D6A, symSize: 0x56 }
  - { offsetInCU: 0x19DC, offset: 0x1792F1, size: 0x8, addend: 0x0, symName: __ZN10serde_json4read11next_or_eof17hef87bcae777b9fd1E, symObjAddr: 0x400B0, symBinAddr: 0x3F018, symSize: 0x3C }
  - { offsetInCU: 0x1A0E, offset: 0x179323, size: 0x8, addend: 0x0, symName: __ZN10serde_json4read11next_or_eof17hef87bcae777b9fd1E, symObjAddr: 0x400B0, symBinAddr: 0x3F018, symSize: 0x3C }
  - { offsetInCU: 0x1A64, offset: 0x179379, size: 0x8, addend: 0x0, symName: __ZN10serde_json4read5error17hfd2d3c68fbc01db7E, symObjAddr: 0x400EC, symBinAddr: 0x43DC0, symSize: 0x46 }
  - { offsetInCU: 0x1BAC, offset: 0x1794C1, size: 0x8, addend: 0x0, symName: __ZN10serde_json4read11peek_or_eof17hcfc4c83f3f964534E, symObjAddr: 0x40220, symBinAddr: 0x3F144, symSize: 0x35 }
  - { offsetInCU: 0x1BDE, offset: 0x1794F3, size: 0x8, addend: 0x0, symName: __ZN10serde_json4read11peek_or_eof17hcfc4c83f3f964534E, symObjAddr: 0x40220, symBinAddr: 0x3F144, symSize: 0x35 }
  - { offsetInCU: 0x1C1F, offset: 0x179534, size: 0x8, addend: 0x0, symName: __ZN10serde_json4read19push_wtf8_codepoint17hb07809b54f0a8a1eE, symObjAddr: 0x40255, symBinAddr: 0x3F179, symSize: 0xCA }
  - { offsetInCU: 0x1E87, offset: 0x17979C, size: 0x8, addend: 0x0, symName: __ZN10serde_json4read5error17hf57a1eb4fe218e32E, symObjAddr: 0x4031F, symBinAddr: 0x43E07, symSize: 0x53 }
  - { offsetInCU: 0x1F42, offset: 0x179857, size: 0x8, addend: 0x0, symName: __ZN10serde_json4read5error17h4b081d5ce78e5c0fE, symObjAddr: 0x40390, symBinAddr: 0x43E5C, symSize: 0x55 }
  - { offsetInCU: 0x293B, offset: 0x17A250, size: 0x8, addend: 0x0, symName: __ZN10serde_json4read9SliceRead17position_of_index17hfc1dd98ff7ff6034E, symObjAddr: 0x3FEC8, symBinAddr: 0x3EE84, symSize: 0x74 }
  - { offsetInCU: 0x2EF5, offset: 0x17A80A, size: 0x8, addend: 0x0, symName: __ZN10serde_json4read9SliceRead14skip_to_escape17hccb93e195889c6dfE, symObjAddr: 0x3FF3C, symBinAddr: 0x3EEF8, symSize: 0x11E }
  - { offsetInCU: 0x3588, offset: 0x17AE9D, size: 0x8, addend: 0x0, symName: '__ZN5alloc3vec16Vec$LT$T$C$A$GT$4push17h4d821e198a0085f7E', symObjAddr: 0x40132, symBinAddr: 0x3F056, symSize: 0x3B }
  - { offsetInCU: 0x3739, offset: 0x17B04E, size: 0x8, addend: 0x0, symName: __ZN10serde_json4read9SliceRead19skip_to_escape_slow17hca548b0ba7e96021E, symObjAddr: 0x403E5, symBinAddr: 0x43EB1, symSize: 0x33 }
  - { offsetInCU: 0x1E, offset: 0x17B269, size: 0x8, addend: 0x0, symName: __ZN5serde3ser10Serializer11collect_seq17hf5944a5d7376186eE, symObjAddr: 0x40888, symBinAddr: 0x3F6D4, symSize: 0xBE }
  - { offsetInCU: 0xBF, offset: 0x17B30A, size: 0x8, addend: 0x0, symName: __ZN10serde_json3ser9Formatter9end_array17he4e8069d3393002cE, symObjAddr: 0x40946, symBinAddr: 0x3F792, symSize: 0x26 }
  - { offsetInCU: 0x269, offset: 0x17B4B4, size: 0x8, addend: 0x0, symName: __ZN10serde_json3ser9Formatter10end_object17ha2cba088061b4be4E.2298, symObjAddr: 0x40B2C, symBinAddr: 0x3F978, symSize: 0x26 }
  - { offsetInCU: 0x50C, offset: 0x17B757, size: 0x8, addend: 0x0, symName: __ZN10serde_json3ser6ESCAPE17hdd737513095b9c3cE, symObjAddr: 0x5097E, symBinAddr: 0x4F866, symSize: 0x0 }
  - { offsetInCU: 0xC96, offset: 0x17BEE1, size: 0x8, addend: 0x0, symName: __ZN10serde_json3ser18format_escaped_str17h8a0b21c898f2ce1bE, symObjAddr: 0x40BDA, symBinAddr: 0x3FA26, symSize: 0x142 }
  - { offsetInCU: 0x126C, offset: 0x17C4B7, size: 0x8, addend: 0x0, symName: __ZN10serde_json3ser17invalid_raw_value17hcd2b2afe1309e1e7E, symObjAddr: 0x40D1C, symBinAddr: 0x43EE4, symSize: 0x1C }
  - { offsetInCU: 0x13E3, offset: 0x17C62E, size: 0x8, addend: 0x0, symName: '__ZN10serde_json5value3ser76_$LT$impl$u20$serde..ser..Serialize$u20$for$u20$serde_json..value..Value$GT$9serialize17hdb80f6900b374772E', symObjAddr: 0x4096C, symBinAddr: 0x3F7B8, symSize: 0x1C0 }
  - { offsetInCU: 0x2FF8, offset: 0x17E243, size: 0x8, addend: 0x0, symName: __ZN5serde3ser10Serializer11collect_seq17hf5944a5d7376186eE, symObjAddr: 0x40888, symBinAddr: 0x3F6D4, symSize: 0xBE }
  - { offsetInCU: 0x33D7, offset: 0x17E622, size: 0x8, addend: 0x0, symName: __ZN5serde3ser12SerializeMap15serialize_entry17h6cc538ccfcb85dc4E, symObjAddr: 0x40B52, symBinAddr: 0x3F99E, symSize: 0x88 }
  - { offsetInCU: 0x1E, offset: 0x17EC24, size: 0x8, addend: 0x0, symName: __ZN4itoa6Buffer6format17hbc659457be76f38eE, symObjAddr: 0x40D38, symBinAddr: 0x3FB68, symSize: 0xD5 }
  - { offsetInCU: 0x4D6, offset: 0x17F0DC, size: 0x8, addend: 0x0, symName: __ZN4itoa6Buffer6format17hbc659457be76f38eE, symObjAddr: 0x40D38, symBinAddr: 0x3FB68, symSize: 0xD5 }
  - { offsetInCU: 0x60B, offset: 0x17F211, size: 0x8, addend: 0x0, symName: __ZN4itoa6Buffer6format17hf3cabc433d7f5b3cE, symObjAddr: 0x40E0D, symBinAddr: 0x3FC3D, symSize: 0xBA }
  - { offsetInCU: 0x1E, offset: 0x17F385, size: 0x8, addend: 0x0, symName: '__ZN4core3ptr73drop_in_place$LT$core..option..Option$LT$serde_json..value..Value$GT$$GT$17h95f48c45fb223745E', symObjAddr: 0x40EC7, symBinAddr: 0x3FCF7, symSize: 0x65 }
  - { offsetInCU: 0x23F, offset: 0x17F5A6, size: 0x8, addend: 0x0, symName: '__ZN4core3ptr73drop_in_place$LT$core..option..Option$LT$serde_json..value..Value$GT$$GT$17h95f48c45fb223745E', symObjAddr: 0x40EC7, symBinAddr: 0x3FCF7, symSize: 0x65 }
  - { offsetInCU: 0x1E, offset: 0x180E08, size: 0x8, addend: 0x0, symName: __ZN3ryu6buffer6Buffer13format_finite17h3d4cdd0a49c07a20E, symObjAddr: 0x40F2C, symBinAddr: 0x3FD5C, symSize: 0x1B }
  - { offsetInCU: 0x526, offset: 0x181310, size: 0x8, addend: 0x0, symName: '__ZN68_$LT$serde_json..number..Number$u20$as$u20$serde..ser..Serialize$GT$9serialize17h8d80f3dc0b060c64E', symObjAddr: 0x40F47, symBinAddr: 0x3FD77, symSize: 0x8F }
  - { offsetInCU: 0xD90, offset: 0x181B7A, size: 0x8, addend: 0x0, symName: __ZN3ryu6buffer6Buffer13format_finite17h3d4cdd0a49c07a20E, symObjAddr: 0x40F2C, symBinAddr: 0x3FD5C, symSize: 0x1B }
  - { offsetInCU: 0x1E, offset: 0x181CCA, size: 0x8, addend: 0x0, symName: '__ZN108_$LT$alloc..collections..btree..map..Iter$LT$K$C$V$GT$$u20$as$u20$core..iter..traits..iterator..Iterator$GT$4next17h108099d1f83889d4E', symObjAddr: 0x40FD6, symBinAddr: 0x3FE06, symSize: 0xE7 }
  - { offsetInCU: 0x13CF, offset: 0x18307B, size: 0x8, addend: 0x0, symName: '__ZN4core5slice3cmp56_$LT$impl$u20$core..cmp..Ord$u20$for$u20$$u5b$T$u5d$$GT$3cmp17hc655396116e137caE', symObjAddr: 0x41103, symBinAddr: 0x3FF33, symSize: 0x35 }
  - { offsetInCU: 0x1899, offset: 0x183545, size: 0x8, addend: 0x0, symName: '__ZN108_$LT$alloc..collections..btree..map..Iter$LT$K$C$V$GT$$u20$as$u20$core..iter..traits..iterator..Iterator$GT$4next17h108099d1f83889d4E', symObjAddr: 0x40FD6, symBinAddr: 0x3FE06, symSize: 0xE7 }
  - { offsetInCU: 0x226C, offset: 0x183F18, size: 0x8, addend: 0x0, symName: '__ZN99_$LT$alloc..collections..btree..map..BTreeMap$LT$K$C$V$C$A$GT$$u20$as$u20$core..ops..drop..Drop$GT$4drop17hafb96025af305d57E', symObjAddr: 0x419BC, symBinAddr: 0x407EC, symSize: 0x1BA }
  - { offsetInCU: 0x37B5, offset: 0x185461, size: 0x8, addend: 0x0, symName: '__ZN41_$LT$T$u20$as$u20$serde..de..Expected$GT$3fmt17h646c1dfa9baa5af7E', symObjAddr: 0x410BD, symBinAddr: 0x3FEED, symSize: 0x23 }
  - { offsetInCU: 0x382E, offset: 0x1854DA, size: 0x8, addend: 0x0, symName: '__ZN41_$LT$T$u20$as$u20$serde..de..Expected$GT$3fmt17he8d288a6c1d6780bE', symObjAddr: 0x410E0, symBinAddr: 0x3FF10, symSize: 0x23 }
  - { offsetInCU: 0x3CB0, offset: 0x18595C, size: 0x8, addend: 0x0, symName: '__ZN5alloc11collections5btree3map25BTreeMap$LT$K$C$V$C$A$GT$3get17h868346156e6896adE', symObjAddr: 0x41138, symBinAddr: 0x3FF68, symSize: 0xB1 }
  - { offsetInCU: 0x3CDF, offset: 0x18598B, size: 0x8, addend: 0x0, symName: '__ZN5alloc11collections5btree3map25BTreeMap$LT$K$C$V$C$A$GT$3get17h868346156e6896adE', symObjAddr: 0x41138, symBinAddr: 0x3FF68, symSize: 0xB1 }
  - { offsetInCU: 0x4321, offset: 0x185FCD, size: 0x8, addend: 0x0, symName: '__ZN5alloc11collections5btree3map25BTreeMap$LT$K$C$V$C$A$GT$6insert17hf2f751cdbe0c6a72E', symObjAddr: 0x411E9, symBinAddr: 0x40019, symSize: 0x7D3 }
  - { offsetInCU: 0x1E, offset: 0x187AE8, size: 0x8, addend: 0x0, symName: '__ZN44_$LT$$RF$T$u20$as$u20$core..fmt..Display$GT$3fmt17h821536458b1a25bbE', symObjAddr: 0x41B76, symBinAddr: 0x409A6, symSize: 0x15 }
  - { offsetInCU: 0x2BD, offset: 0x187D87, size: 0x8, addend: 0x0, symName: '__ZN4core3ptr45drop_in_place$LT$serde_json..value..Value$GT$17h7cffa3c29ecf2060E.2409', symObjAddr: 0x41B8B, symBinAddr: 0x409BB, symSize: 0x60 }
  - { offsetInCU: 0xD64, offset: 0x18882E, size: 0x8, addend: 0x0, symName: '__ZN44_$LT$$RF$T$u20$as$u20$core..fmt..Display$GT$3fmt17h821536458b1a25bbE', symObjAddr: 0x41B76, symBinAddr: 0x409A6, symSize: 0x15 }
  - { offsetInCU: 0xE79, offset: 0x188943, size: 0x8, addend: 0x0, symName: '__ZN4core5slice29_$LT$impl$u20$$u5b$T$u5d$$GT$11starts_with17hb962a60b8bd04983E', symObjAddr: 0x41C31, symBinAddr: 0x40A61, symSize: 0x1F }
  - { offsetInCU: 0x1101, offset: 0x188BCB, size: 0x8, addend: 0x0, symName: '__ZN77_$LT$alloc..raw_vec..RawVec$LT$T$C$A$GT$$u20$as$u20$core..ops..drop..Drop$GT$4drop17h862e89a0309aeed0E', symObjAddr: 0x41C13, symBinAddr: 0x40A43, symSize: 0x1E }
  - { offsetInCU: 0x1163, offset: 0x188C2D, size: 0x8, addend: 0x0, symName: '__ZN63_$LT$alloc..alloc..Global$u20$as$u20$core..alloc..Allocator$GT$8allocate17h7165425281bb57f3E.2437', symObjAddr: 0x41C50, symBinAddr: 0x40A80, symSize: 0x10 }
  - { offsetInCU: 0x14CC, offset: 0x188F96, size: 0x8, addend: 0x0, symName: '__ZN70_$LT$alloc..vec..Vec$LT$T$C$A$GT$$u20$as$u20$core..ops..drop..Drop$GT$4drop17h3f48747e9a2720a9E', symObjAddr: 0x41BEB, symBinAddr: 0x40A1B, symSize: 0x28 }
  - { offsetInCU: 0x1F8C, offset: 0x189A56, size: 0x8, addend: 0x0, symName: '__ZN65_$LT$serde_json..io..imp..Error$u20$as$u20$core..fmt..Display$GT$3fmt17ha5e522c2743ece21E', symObjAddr: 0x41C92, symBinAddr: 0x43F02, symSize: 0xC }
  - { offsetInCU: 0x2695, offset: 0x18A15F, size: 0x8, addend: 0x0, symName: '__ZN5alloc7raw_vec19RawVec$LT$T$C$A$GT$8grow_one17hc6e5218be79c9645E', symObjAddr: 0x41C60, symBinAddr: 0x40A90, symSize: 0x32 }
  - { offsetInCU: 0x1E, offset: 0x18A238, size: 0x8, addend: 0x0, symName: '__ZN99_$LT$sqlite3_allocator..allocator..SQLite3Allocator$u20$as$u20$core..alloc..global..GlobalAlloc$GT$5alloc17h76c5551a8acfc735E', symObjAddr: 0x41C9E, symBinAddr: 0x40AC2, symSize: 0x1E }
  - { offsetInCU: 0x272, offset: 0x18A48C, size: 0x8, addend: 0x0, symName: '__ZN99_$LT$sqlite3_allocator..allocator..SQLite3Allocator$u20$as$u20$core..alloc..global..GlobalAlloc$GT$5alloc17h76c5551a8acfc735E', symObjAddr: 0x41C9E, symBinAddr: 0x40AC2, symSize: 0x1E }
  - { offsetInCU: 0x2AE, offset: 0x18A4C8, size: 0x8, addend: 0x0, symName: '__ZN99_$LT$sqlite3_allocator..allocator..SQLite3Allocator$u20$as$u20$core..alloc..global..GlobalAlloc$GT$5alloc17h76c5551a8acfc735E', symObjAddr: 0x41C9E, symBinAddr: 0x40AC2, symSize: 0x1E }
  - { offsetInCU: 0x2DE, offset: 0x18A4F8, size: 0x8, addend: 0x0, symName: '__ZN99_$LT$sqlite3_allocator..allocator..SQLite3Allocator$u20$as$u20$core..alloc..global..GlobalAlloc$GT$7dealloc17hbabd342ae3c13ce0E', symObjAddr: 0x41CBC, symBinAddr: 0x40AE0, symSize: 0x1E }
  - { offsetInCU: 0x321, offset: 0x18A53B, size: 0x8, addend: 0x0, symName: '__ZN99_$LT$sqlite3_allocator..allocator..SQLite3Allocator$u20$as$u20$core..alloc..global..GlobalAlloc$GT$7dealloc17hbabd342ae3c13ce0E', symObjAddr: 0x41CBC, symBinAddr: 0x40AE0, symSize: 0x1E }
  - { offsetInCU: 0x1E, offset: 0x18A5B6, size: 0x8, addend: 0x0, symName: __ZN12sqlite3_capi4capi8bind_int17h5e6594fe4055d230E, symObjAddr: 0x41CDA, symBinAddr: 0x40AFE, symSize: 0x1B }
  - { offsetInCU: 0x5CFD, offset: 0x190295, size: 0x8, addend: 0x0, symName: __ZN12sqlite3_capi4capi11SQLITE3_API17h6da9097b298a15b7E.0, symObjAddr: 0x5354A0, symBinAddr: 0x51BF0, symSize: 0x0 }
  - { offsetInCU: 0x5F10, offset: 0x1904A8, size: 0x8, addend: 0x0, symName: __ZN12sqlite3_capi4capi8bind_int17h5e6594fe4055d230E, symObjAddr: 0x41CDA, symBinAddr: 0x40AFE, symSize: 0x1B }
  - { offsetInCU: 0x5F72, offset: 0x19050A, size: 0x8, addend: 0x0, symName: __ZN12sqlite3_capi4capi10bind_int6417had6058a460b2d31cE, symObjAddr: 0x41CF5, symBinAddr: 0x40B19, symSize: 0x1B }
  - { offsetInCU: 0x5FD4, offset: 0x19056C, size: 0x8, addend: 0x0, symName: __ZN12sqlite3_capi4capi9bind_text17hf2dfac8fac1a670cE, symObjAddr: 0x41D10, symBinAddr: 0x40B34, symSize: 0x1E }
  - { offsetInCU: 0x6055, offset: 0x1905ED, size: 0x8, addend: 0x0, symName: __ZN12sqlite3_capi4capi20bind_parameter_count17hda350b675f15429dE, symObjAddr: 0x41D2E, symBinAddr: 0x40B52, symSize: 0x1B }
  - { offsetInCU: 0x6099, offset: 0x190631, size: 0x8, addend: 0x0, symName: __ZN12sqlite3_capi4capi12column_bytes17ha19c82d7ce943068E, symObjAddr: 0x41D49, symBinAddr: 0x40B6D, symSize: 0x1E }
  - { offsetInCU: 0x60EF, offset: 0x190687, size: 0x8, addend: 0x0, symName: __ZN12sqlite3_capi4capi15column_text_ptr17hc0d276eeccaeda1aE, symObjAddr: 0x41D67, symBinAddr: 0x40B8B, symSize: 0x1E }
  - { offsetInCU: 0x6145, offset: 0x1906DD, size: 0x8, addend: 0x0, symName: __ZN12sqlite3_capi4capi10column_int17h1ef585d49f0296d5E, symObjAddr: 0x41D85, symBinAddr: 0x40BA9, symSize: 0x1E }
  - { offsetInCU: 0x619B, offset: 0x190733, size: 0x8, addend: 0x0, symName: __ZN12sqlite3_capi4capi12column_int6417h64bdeb93f8db1f66E, symObjAddr: 0x41DA3, symBinAddr: 0x40BC7, symSize: 0x1E }
  - { offsetInCU: 0x61F0, offset: 0x190788, size: 0x8, addend: 0x0, symName: __ZN12sqlite3_capi4capi17context_db_handle17h4f8907424209640bE, symObjAddr: 0x41DC1, symBinAddr: 0x40BE5, symSize: 0x1E }
  - { offsetInCU: 0x6236, offset: 0x1907CE, size: 0x8, addend: 0x0, symName: __ZN12sqlite3_capi4capi16create_module_v217h8ae186b65a3cf9f1E, symObjAddr: 0x41DDF, symBinAddr: 0x40C03, symSize: 0x25 }
  - { offsetInCU: 0x62B9, offset: 0x190851, size: 0x8, addend: 0x0, symName: __ZN12sqlite3_capi4capi4exec17h1f693c18a6a05c7aE, symObjAddr: 0x41E04, symBinAddr: 0x40C28, symSize: 0x25 }
  - { offsetInCU: 0x630F, offset: 0x1908A7, size: 0x8, addend: 0x0, symName: __ZN12sqlite3_capi4capi10prepare_v217h85f6e26099ecda58E, symObjAddr: 0x41E29, symBinAddr: 0x40C4D, symSize: 0x1E }
  - { offsetInCU: 0x6395, offset: 0x19092D, size: 0x8, addend: 0x0, symName: __ZN12sqlite3_capi4capi11result_null17h86492561c335f7b3E, symObjAddr: 0x41E47, symBinAddr: 0x40C6B, symSize: 0x1E }
  - { offsetInCU: 0x63D7, offset: 0x19096F, size: 0x8, addend: 0x0, symName: __ZN12sqlite3_capi4capi11result_text17h50d64758c238bc2bE, symObjAddr: 0x41E65, symBinAddr: 0x40C89, symSize: 0x21 }
  - { offsetInCU: 0x644A, offset: 0x1909E2, size: 0x8, addend: 0x0, symName: __ZN12sqlite3_capi4capi14result_subtype17hddefc0c1b68b1493E, symObjAddr: 0x41E86, symBinAddr: 0x40CAA, symSize: 0x1E }
  - { offsetInCU: 0x649B, offset: 0x190A33, size: 0x8, addend: 0x0, symName: __ZN12sqlite3_capi4capi10value_text17hf96cc853c14ac7aeE, symObjAddr: 0x41EA4, symBinAddr: 0x40CC8, symSize: 0x37 }
  - { offsetInCU: 0x6516, offset: 0x190AAE, size: 0x8, addend: 0x0, symName: __ZN12sqlite3_capi4capi11value_bytes17h109ba4a04dea8347E, symObjAddr: 0x41EDB, symBinAddr: 0x40CFF, symSize: 0x1E }
  - { offsetInCU: 0x655C, offset: 0x190AF4, size: 0x8, addend: 0x0, symName: __ZN12sqlite3_capi4capi10value_type17h66593a3e6a8d193fE, symObjAddr: 0x41EF9, symBinAddr: 0x40D1D, symSize: 0x1E }
  - { offsetInCU: 0x1E, offset: 0x19464C, size: 0x8, addend: 0x0, symName: '__ZN42_$LT$$RF$T$u20$as$u20$core..fmt..Debug$GT$3fmt17h51238f4ae97a5cc2E', symObjAddr: 0x41F17, symBinAddr: 0x40D3B, symSize: 0x9BD }
  - { offsetInCU: 0xABF, offset: 0x1950ED, size: 0x8, addend: 0x0, symName: '__ZN4core3ptr47drop_in_place$LT$alloc..ffi..c_str..CString$GT$17h79309d05f120c488E', symObjAddr: 0x42929, symBinAddr: 0x4174D, symSize: 0x14 }
  - { offsetInCU: 0x10EA, offset: 0x195718, size: 0x8, addend: 0x0, symName: '__ZN42_$LT$$RF$T$u20$as$u20$core..fmt..Debug$GT$3fmt17h51238f4ae97a5cc2E', symObjAddr: 0x41F17, symBinAddr: 0x40D3B, symSize: 0x9BD }
  - { offsetInCU: 0x1460, offset: 0x195A8E, size: 0x8, addend: 0x0, symName: '__ZN95_$LT$$BP$mut$u20$sqlite3_capi..bindings..sqlite3$u20$as$u20$sqlite_nostd..nostd..Connection$GT$18create_function_v217he136efdcd2d13a08E', symObjAddr: 0x43104, symBinAddr: 0x41F28, symSize: 0xBB }
  - { offsetInCU: 0x15C4, offset: 0x195BF2, size: 0x8, addend: 0x0, symName: '__ZN95_$LT$$BP$mut$u20$sqlite3_capi..bindings..sqlite3$u20$as$u20$sqlite_nostd..nostd..Connection$GT$6errmsg17h3746d2a8dde55072E', symObjAddr: 0x431DC, symBinAddr: 0x42000, symSize: 0xF4 }
  - { offsetInCU: 0x188D, offset: 0x195EBB, size: 0x8, addend: 0x0, symName: '__ZN95_$LT$$BP$mut$u20$sqlite3_capi..bindings..sqlite3$u20$as$u20$sqlite_nostd..nostd..Connection$GT$14get_autocommit17h9e2b06d0004e44cfE', symObjAddr: 0x432D0, symBinAddr: 0x420F4, symSize: 0x25 }
  - { offsetInCU: 0x1918, offset: 0x195F46, size: 0x8, addend: 0x0, symName: '__ZN70_$LT$sqlite_nostd..nostd..ResultCode$u20$as$u20$core..fmt..Display$GT$3fmt17h343fec406e3274c2E', symObjAddr: 0x428D4, symBinAddr: 0x416F8, symSize: 0x55 }
  - { offsetInCU: 0x1A13, offset: 0x196041, size: 0x8, addend: 0x0, symName: __ZN12sqlite_nostd5nostd10convert_rc17h5d80d46878c9624fE, symObjAddr: 0x431BF, symBinAddr: 0x41FE3, symSize: 0x1D }
  - { offsetInCU: 0x1B17, offset: 0x196145, size: 0x8, addend: 0x0, symName: '__ZN74_$LT$sqlite_nostd..nostd..ManagedStmt$u20$as$u20$core..ops..drop..Drop$GT$4drop17hbf73ccd1612b5926E', symObjAddr: 0x4335F, symBinAddr: 0x42183, symSize: 0x1E }
  - { offsetInCU: 0x1B41, offset: 0x19616F, size: 0x8, addend: 0x0, symName: '__ZN74_$LT$sqlite_nostd..nostd..ManagedStmt$u20$as$u20$core..ops..drop..Drop$GT$4drop17hbf73ccd1612b5926E', symObjAddr: 0x4335F, symBinAddr: 0x42183, symSize: 0x1E }
  - { offsetInCU: 0x1B78, offset: 0x1961A6, size: 0x8, addend: 0x0, symName: '__ZN94_$LT$$BP$mut$u20$sqlite3_capi..bindings..sqlite3_vtab$u20$as$u20$sqlite_nostd..nostd..VTab$GT$7set_err17hf999a6bfb6aabddfE', symObjAddr: 0x4337D, symBinAddr: 0x421A1, symSize: 0x45 }
  - { offsetInCU: 0x1C10, offset: 0x19623E, size: 0x8, addend: 0x0, symName: __ZN12sqlite_nostd5nostd12declare_vtab17h6e1a8fe3affa248aE, symObjAddr: 0x433C2, symBinAddr: 0x421E6, symSize: 0x90 }
  - { offsetInCU: 0x1DAD, offset: 0x1963DB, size: 0x8, addend: 0x0, symName: __ZN12sqlite_nostd5nostd11vtab_config17hedee893e710ec129E, symObjAddr: 0x43452, symBinAddr: 0x42276, symSize: 0x22 }
  - { offsetInCU: 0x1DEE, offset: 0x19641C, size: 0x8, addend: 0x0, symName: __ZN12sqlite_nostd5nostd11vtab_config17hedee893e710ec129E, symObjAddr: 0x43452, symBinAddr: 0x42276, symSize: 0x22 }
  - { offsetInCU: 0x290D, offset: 0x196F3B, size: 0x8, addend: 0x0, symName: __ZN10num_traits4cast13FromPrimitive8from_i3217h54e3353c5510acd2E, symObjAddr: 0x4293D, symBinAddr: 0x41761, symSize: 0x7C7 }
  - { offsetInCU: 0x2A00, offset: 0x19702E, size: 0x8, addend: 0x0, symName: __ZN12sqlite_nostd5nostd11ManagedStmt5reset17h4d40900d21068d6fE, symObjAddr: 0x432F5, symBinAddr: 0x42119, symSize: 0x26 }
  - { offsetInCU: 0x2ABC, offset: 0x1970EA, size: 0x8, addend: 0x0, symName: __ZN12sqlite_nostd5nostd11ManagedStmt4step17h88c1c04c4db13435E, symObjAddr: 0x4331B, symBinAddr: 0x4213F, symSize: 0x44 }
  - { offsetInCU: 0x3F, offset: 0x197B0B, size: 0x8, addend: 0x0, symName: __ZN17compiler_builtins3int6traits4DInt10from_lo_hi17h8200236670d66bc8E, symObjAddr: 0x48, symBinAddr: 0x42298, symSize: 0xC }
  - { offsetInCU: 0x89, offset: 0x197B55, size: 0x8, addend: 0x0, symName: '__ZN59_$LT$u64$u20$as$u20$compiler_builtins..int..traits..Int$GT$11logical_shr17hfd03a850b8e5645cE', symObjAddr: 0x6FD, symBinAddr: 0x422A4, symSize: 0xE }
  - { offsetInCU: 0x101, offset: 0x197BCD, size: 0x8, addend: 0x0, symName: '__ZN59_$LT$u64$u20$as$u20$compiler_builtins..int..traits..Int$GT$12wrapping_shl17h53f24f14319fc571E', symObjAddr: 0x73A, symBinAddr: 0x422B2, symSize: 0xE }
  - { offsetInCU: 0x3F, offset: 0x197D9D, size: 0x8, addend: 0x0, symName: __ZN17compiler_builtins3int5shift4Lshr4lshr17h9e095cc3390b8eacE, symObjAddr: 0x7CB, symBinAddr: 0x422C0, symSize: 0x7C }
  - { offsetInCU: 0xE6, offset: 0x197E44, size: 0x8, addend: 0x0, symName: __ZN17compiler_builtins3int5shift9__lshrti317h5383e557efa53a67E, symObjAddr: 0xEA9, symBinAddr: 0x4233C, symSize: 0xA }
  - { offsetInCU: 0x3F, offset: 0x197F9D, size: 0x8, addend: 0x0, symName: ___lshrti3, symObjAddr: 0xFD, symBinAddr: 0x42346, symSize: 0xA }
...
